
MyProject1.elf:     file format elf32-avr

Sections:
Idx Name          Size      VMA       LMA       File off  Algn
  0 .data         00000174  00800100  00001afe  00001b92  2**0
                  CONTENTS, ALLOC, LOAD, DATA
  1 .text         00001afe  00000000  00000000  00000094  2**1
                  CONTENTS, ALLOC, LOAD, READONLY, CODE
  2 .bss          0000005a  00800274  00800274  00001d06  2**0
                  ALLOC
  3 .comment      0000005c  00000000  00000000  00001d06  2**0
                  CONTENTS, READONLY
  4 .note.gnu.avr.deviceinfo 00000040  00000000  00000000  00001d64  2**2
                  CONTENTS, READONLY
  5 .debug_aranges 00000118  00000000  00000000  00001da4  2**0
                  CONTENTS, READONLY, DEBUGGING
  6 .debug_info   00001b23  00000000  00000000  00001ebc  2**0
                  CONTENTS, READONLY, DEBUGGING
  7 .debug_abbrev 00001192  00000000  00000000  000039df  2**0
                  CONTENTS, READONLY, DEBUGGING
  8 .debug_line   000016ce  00000000  00000000  00004b71  2**0
                  CONTENTS, READONLY, DEBUGGING
  9 .debug_frame  00000298  00000000  00000000  00006240  2**2
                  CONTENTS, READONLY, DEBUGGING
 10 .debug_str    0000b443  00000000  00000000  000064d8  2**0
                  CONTENTS, READONLY, DEBUGGING
 11 .debug_loc    00000a96  00000000  00000000  0001191b  2**0
                  CONTENTS, READONLY, DEBUGGING
 12 .debug_ranges 000000e0  00000000  00000000  000123b1  2**0
                  CONTENTS, READONLY, DEBUGGING
 13 .debug_macro  000047a9  00000000  00000000  00012491  2**0
                  CONTENTS, READONLY, DEBUGGING

Disassembly of section .text:

00000000 <__vectors>:
       0:	48 c0       	rjmp	.+144    	; 0x92 <__ctors_end>
       2:	00 00       	nop
       4:	62 c0       	rjmp	.+196    	; 0xca <__bad_interrupt>
       6:	00 00       	nop
       8:	60 c0       	rjmp	.+192    	; 0xca <__bad_interrupt>
       a:	00 00       	nop
       c:	5e c0       	rjmp	.+188    	; 0xca <__bad_interrupt>
       e:	00 00       	nop
      10:	5c c0       	rjmp	.+184    	; 0xca <__bad_interrupt>
      12:	00 00       	nop
      14:	5a c0       	rjmp	.+180    	; 0xca <__bad_interrupt>
      16:	00 00       	nop
      18:	58 c0       	rjmp	.+176    	; 0xca <__bad_interrupt>
      1a:	00 00       	nop
      1c:	56 c0       	rjmp	.+172    	; 0xca <__bad_interrupt>
      1e:	00 00       	nop
      20:	54 c0       	rjmp	.+168    	; 0xca <__bad_interrupt>
      22:	00 00       	nop
      24:	52 c0       	rjmp	.+164    	; 0xca <__bad_interrupt>
      26:	00 00       	nop
      28:	50 c0       	rjmp	.+160    	; 0xca <__bad_interrupt>
      2a:	00 00       	nop
      2c:	4e c0       	rjmp	.+156    	; 0xca <__bad_interrupt>
      2e:	00 00       	nop
      30:	4c c0       	rjmp	.+152    	; 0xca <__bad_interrupt>
      32:	00 00       	nop
      34:	4a c0       	rjmp	.+148    	; 0xca <__bad_interrupt>
      36:	00 00       	nop
      38:	48 c0       	rjmp	.+144    	; 0xca <__bad_interrupt>
      3a:	00 00       	nop
      3c:	46 c0       	rjmp	.+140    	; 0xca <__bad_interrupt>
      3e:	00 00       	nop
      40:	44 c0       	rjmp	.+136    	; 0xca <__bad_interrupt>
      42:	00 00       	nop
      44:	42 c0       	rjmp	.+132    	; 0xca <__bad_interrupt>
      46:	00 00       	nop
      48:	40 c0       	rjmp	.+128    	; 0xca <__bad_interrupt>
      4a:	00 00       	nop
      4c:	3e c0       	rjmp	.+124    	; 0xca <__bad_interrupt>
      4e:	00 00       	nop
      50:	f2 c7       	rjmp	.+4068   	; 0x1036 <__vector_20>
      52:	00 00       	nop
      54:	3a c0       	rjmp	.+116    	; 0xca <__bad_interrupt>
      56:	00 00       	nop
      58:	38 c0       	rjmp	.+112    	; 0xca <__bad_interrupt>
      5a:	00 00       	nop
      5c:	36 c0       	rjmp	.+108    	; 0xca <__bad_interrupt>
      5e:	00 00       	nop
      60:	34 c0       	rjmp	.+104    	; 0xca <__bad_interrupt>
      62:	00 00       	nop
      64:	32 c0       	rjmp	.+100    	; 0xca <__bad_interrupt>
      66:	00 00       	nop
      68:	30 c0       	rjmp	.+96     	; 0xca <__bad_interrupt>
      6a:	00 00       	nop
      6c:	2e c0       	rjmp	.+92     	; 0xca <__bad_interrupt>
      6e:	00 00       	nop
      70:	2c c0       	rjmp	.+88     	; 0xca <__bad_interrupt>
      72:	00 00       	nop
      74:	2a c0       	rjmp	.+84     	; 0xca <__bad_interrupt>
      76:	00 00       	nop
      78:	28 c0       	rjmp	.+80     	; 0xca <__bad_interrupt>
      7a:	00 00       	nop
      7c:	2c 01       	movw	r4, r24
      7e:	be 01       	movw	r22, r28
      80:	38 02       	muls	r19, r24
      82:	9c 02       	muls	r25, r28
      84:	d9 02       	muls	r29, r25
      86:	20 03       	mulsu	r18, r16
      88:	6b 03       	fmul	r22, r19
      8a:	f6 03       	fmuls	r23, r22
      8c:	8b 04       	cpc	r8, r11
      8e:	27 01       	movw	r4, r14
      90:	81 05       	cpc	r24, r1

00000092 <__ctors_end>:
      92:	11 24       	eor	r1, r1
      94:	1f be       	out	0x3f, r1	; 63
      96:	cf ef       	ldi	r28, 0xFF	; 255
      98:	d4 e0       	ldi	r29, 0x04	; 4
      9a:	de bf       	out	0x3e, r29	; 62
      9c:	cd bf       	out	0x3d, r28	; 61

0000009e <__do_copy_data>:
      9e:	12 e0       	ldi	r17, 0x02	; 2
      a0:	a0 e0       	ldi	r26, 0x00	; 0
      a2:	b1 e0       	ldi	r27, 0x01	; 1
      a4:	ee ef       	ldi	r30, 0xFE	; 254
      a6:	fa e1       	ldi	r31, 0x1A	; 26
      a8:	02 c0       	rjmp	.+4      	; 0xae <__do_copy_data+0x10>
      aa:	05 90       	lpm	r0, Z+
      ac:	0d 92       	st	X+, r0
      ae:	a4 37       	cpi	r26, 0x74	; 116
      b0:	b1 07       	cpc	r27, r17
      b2:	d9 f7       	brne	.-10     	; 0xaa <__do_copy_data+0xc>

000000b4 <__do_clear_bss>:
      b4:	22 e0       	ldi	r18, 0x02	; 2
      b6:	a4 e7       	ldi	r26, 0x74	; 116
      b8:	b2 e0       	ldi	r27, 0x02	; 2
      ba:	01 c0       	rjmp	.+2      	; 0xbe <.do_clear_bss_start>

000000bc <.do_clear_bss_loop>:
      bc:	1d 92       	st	X+, r1

000000be <.do_clear_bss_start>:
      be:	ae 3c       	cpi	r26, 0xCE	; 206
      c0:	b2 07       	cpc	r27, r18
      c2:	e1 f7       	brne	.-8      	; 0xbc <.do_clear_bss_loop>
      c4:	7e d6       	rcall	.+3324   	; 0xdc2 <main>
      c6:	0c 94 7d 0d 	jmp	0x1afa	; 0x1afa <_exit>

000000ca <__bad_interrupt>:
      ca:	9a cf       	rjmp	.-204    	; 0x0 <__vectors>

000000cc <can_clear_all_mob>:
uint8_t  mob_number;
/*
    uint8_t  data_index;
*/

    for (mob_number = 0; mob_number < NB_MOB; mob_number++)
      cc:	80 e0       	ldi	r24, 0x00	; 0
    {
        CANPAGE = (mob_number << 4);    //! Page index
      ce:	ad ee       	ldi	r26, 0xED	; 237
      d0:	b0 e0       	ldi	r27, 0x00	; 0
      d2:	98 2f       	mov	r25, r24
      d4:	92 95       	swap	r25
      d6:	90 7f       	andi	r25, 0xF0	; 240
      d8:	9c 93       	st	X, r25
        Can_clear_mob();                //! All MOb Registers=0
      da:	ee ee       	ldi	r30, 0xEE	; 238
      dc:	f0 e0       	ldi	r31, 0x00	; 0
      de:	11 92       	st	Z+, r1
      e0:	e8 3f       	cpi	r30, 0xF8	; 248
      e2:	f1 05       	cpc	r31, r1
      e4:	e1 f7       	brne	.-8      	; 0xde <can_clear_all_mob+0x12>
uint8_t  mob_number;
/*
    uint8_t  data_index;
*/

    for (mob_number = 0; mob_number < NB_MOB; mob_number++)
      e6:	8f 5f       	subi	r24, 0xFF	; 255
      e8:	86 30       	cpi	r24, 0x06	; 6
      ea:	99 f7       	brne	.-26     	; 0xd2 <can_clear_all_mob+0x6>
        {
            CANMSG = 0;                 //! MOb data FIFO
        }
*/
    }
}
      ec:	08 95       	ret

000000ee <can_get_mob_free>:
//------------------------------------------------------------------------------
uint8_t can_get_mob_free(void)
{
    uint8_t mob_number, page_saved;

    page_saved = CANPAGE;
      ee:	ed ee       	ldi	r30, 0xED	; 237
      f0:	f0 e0       	ldi	r31, 0x00	; 0
      f2:	20 81       	ld	r18, Z
    for (mob_number = 0; mob_number < NB_MOB; mob_number++)
    {
        Can_set_mob(mob_number);
      f4:	10 82       	st	Z, r1
        if ((CANCDMOB & 0xC0) == 0x00) //! Disable configuration
      f6:	80 91 ef 00 	lds	r24, 0x00EF	; 0x8000ef <__TEXT_REGION_LENGTH__+0x7e00ef>
      fa:	80 7c       	andi	r24, 0xC0	; 192
      fc:	69 f0       	breq	.+26     	; 0x118 <can_get_mob_free+0x2a>
      fe:	81 e0       	ldi	r24, 0x01	; 1
    uint8_t mob_number, page_saved;

    page_saved = CANPAGE;
    for (mob_number = 0; mob_number < NB_MOB; mob_number++)
    {
        Can_set_mob(mob_number);
     100:	ad ee       	ldi	r26, 0xED	; 237
     102:	b0 e0       	ldi	r27, 0x00	; 0
        if ((CANCDMOB & 0xC0) == 0x00) //! Disable configuration
     104:	ef ee       	ldi	r30, 0xEF	; 239
     106:	f0 e0       	ldi	r31, 0x00	; 0
    uint8_t mob_number, page_saved;

    page_saved = CANPAGE;
    for (mob_number = 0; mob_number < NB_MOB; mob_number++)
    {
        Can_set_mob(mob_number);
     108:	98 2f       	mov	r25, r24
     10a:	92 95       	swap	r25
     10c:	90 7f       	andi	r25, 0xF0	; 240
     10e:	9c 93       	st	X, r25
        if ((CANCDMOB & 0xC0) == 0x00) //! Disable configuration
     110:	90 81       	ld	r25, Z
     112:	90 7c       	andi	r25, 0xC0	; 192
     114:	29 f4       	brne	.+10     	; 0x120 <can_get_mob_free+0x32>
     116:	01 c0       	rjmp	.+2      	; 0x11a <can_get_mob_free+0x2c>
uint8_t can_get_mob_free(void)
{
    uint8_t mob_number, page_saved;

    page_saved = CANPAGE;
    for (mob_number = 0; mob_number < NB_MOB; mob_number++)
     118:	80 e0       	ldi	r24, 0x00	; 0
    {
        Can_set_mob(mob_number);
        if ((CANCDMOB & 0xC0) == 0x00) //! Disable configuration
        {
            CANPAGE = page_saved;
     11a:	20 93 ed 00 	sts	0x00ED, r18	; 0x8000ed <__TEXT_REGION_LENGTH__+0x7e00ed>
            return (mob_number);
     11e:	08 95       	ret
uint8_t can_get_mob_free(void)
{
    uint8_t mob_number, page_saved;

    page_saved = CANPAGE;
    for (mob_number = 0; mob_number < NB_MOB; mob_number++)
     120:	8f 5f       	subi	r24, 0xFF	; 255
     122:	86 30       	cpi	r24, 0x06	; 6
     124:	89 f7       	brne	.-30     	; 0x108 <can_get_mob_free+0x1a>
        {
            CANPAGE = page_saved;
            return (mob_number);
        }
    }
    CANPAGE = page_saved;
     126:	20 93 ed 00 	sts	0x00ED, r18	; 0x8000ed <__TEXT_REGION_LENGTH__+0x7e00ed>
    return (NO_MOB);
     12a:	8f ef       	ldi	r24, 0xFF	; 255
}
     12c:	08 95       	ret

0000012e <can_get_mob_status>:
uint8_t can_get_mob_status(void)
{
    uint8_t mob_status, canstmob_copy;

    // Test if MOb ENABLE or DISABLE
    if ((CANCDMOB & 0xC0) == 0x00) {return(MOB_DISABLE);}
     12e:	80 91 ef 00 	lds	r24, 0x00EF	; 0x8000ef <__TEXT_REGION_LENGTH__+0x7e00ef>
     132:	80 7c       	andi	r24, 0xC0	; 192
     134:	61 f0       	breq	.+24     	; 0x14e <can_get_mob_status+0x20>

    canstmob_copy = CANSTMOB; // Copy for test integrity
     136:	80 91 ee 00 	lds	r24, 0x00EE	; 0x8000ee <__TEXT_REGION_LENGTH__+0x7e00ee>

    // If MOb is ENABLE, test if MOb is COMPLETED
    // - MOb Status = 0x20 then MOB_RX_COMPLETED
    // - MOb Status = 0x40 then MOB_TX_COMPLETED
    // - MOb Status = 0xA0 then MOB_RX_COMPLETED_DLCW
    mob_status = canstmob_copy & ((1<<DLCW)|(1<<TXOK)|(1<<RXOK));
     13a:	98 2f       	mov	r25, r24
     13c:	90 7e       	andi	r25, 0xE0	; 224
    if ( (mob_status==MOB_RX_COMPLETED) ||   \
     13e:	90 32       	cpi	r25, 0x20	; 32
     140:	41 f0       	breq	.+16     	; 0x152 <can_get_mob_status+0x24>
     142:	90 34       	cpi	r25, 0x40	; 64
     144:	41 f0       	breq	.+16     	; 0x156 <can_get_mob_status+0x28>
         (mob_status==MOB_TX_COMPLETED) ||   \
     146:	90 3a       	cpi	r25, 0xA0	; 160
     148:	41 f0       	breq	.+16     	; 0x15a <can_get_mob_status+0x2c>
    // - MOb Status bit_0 = MOB_ACK_ERROR
    // - MOb Status bit_1 = MOB_FORM_ERROR
    // - MOb Status bit_2 = MOB_CRC_ERROR
    // - MOb Status bit_3 = MOB_STUFF_ERROR
    // - MOb Status bit_4 = MOB_BIT_ERROR
    mob_status = canstmob_copy & ERR_MOB_MSK;
     14a:	8f 71       	andi	r24, 0x1F	; 31
     14c:	08 95       	ret
uint8_t can_get_mob_status(void)
{
    uint8_t mob_status, canstmob_copy;

    // Test if MOb ENABLE or DISABLE
    if ((CANCDMOB & 0xC0) == 0x00) {return(MOB_DISABLE);}
     14e:	8f ef       	ldi	r24, 0xFF	; 255
     150:	08 95       	ret
    // - MOb Status = 0x40 then MOB_TX_COMPLETED
    // - MOb Status = 0xA0 then MOB_RX_COMPLETED_DLCW
    mob_status = canstmob_copy & ((1<<DLCW)|(1<<TXOK)|(1<<RXOK));
    if ( (mob_status==MOB_RX_COMPLETED) ||   \
         (mob_status==MOB_TX_COMPLETED) ||   \
         (mob_status==MOB_RX_COMPLETED_DLCW) ) { return(mob_status); }
     152:	80 e2       	ldi	r24, 0x20	; 32
     154:	08 95       	ret
     156:	80 e4       	ldi	r24, 0x40	; 64
     158:	08 95       	ret
     15a:	80 ea       	ldi	r24, 0xA0	; 160
    mob_status = canstmob_copy & ERR_MOB_MSK;
    if (mob_status != 0) { return(mob_status); }

    // If CANSTMOB = 0 then MOB_NOT_COMPLETED
    return(MOB_NOT_COMPLETED);
}
     15c:	08 95       	ret

0000015e <can_get_data>:
//! @param CAN message data address.
//!
//! @return none.
//------------------------------------------------------------------------------
void can_get_data(uint8_t* p_can_message_data)
{
     15e:	cf 93       	push	r28
     160:	df 93       	push	r29
     162:	bc 01       	movw	r22, r24
    uint8_t data_index;

    for (data_index = 0; data_index < (Can_get_dlc()); data_index++)
     164:	80 91 ef 00 	lds	r24, 0x00EF	; 0x8000ef <__TEXT_REGION_LENGTH__+0x7e00ef>
     168:	8f 70       	andi	r24, 0x0F	; 15
     16a:	99 f0       	breq	.+38     	; 0x192 <can_get_data+0x34>
     16c:	90 e0       	ldi	r25, 0x00	; 0
    {
        *(p_can_message_data + data_index) = CANMSG;
     16e:	ca ef       	ldi	r28, 0xFA	; 250
     170:	d0 e0       	ldi	r29, 0x00	; 0
//------------------------------------------------------------------------------
void can_get_data(uint8_t* p_can_message_data)
{
    uint8_t data_index;

    for (data_index = 0; data_index < (Can_get_dlc()); data_index++)
     172:	af ee       	ldi	r26, 0xEF	; 239
     174:	b0 e0       	ldi	r27, 0x00	; 0
    {
        *(p_can_message_data + data_index) = CANMSG;
     176:	28 81       	ld	r18, Y
     178:	fb 01       	movw	r30, r22
     17a:	e9 0f       	add	r30, r25
     17c:	f1 1d       	adc	r31, r1
     17e:	20 83       	st	Z, r18
//------------------------------------------------------------------------------
void can_get_data(uint8_t* p_can_message_data)
{
    uint8_t data_index;

    for (data_index = 0; data_index < (Can_get_dlc()); data_index++)
     180:	9f 5f       	subi	r25, 0xFF	; 255
     182:	2c 91       	ld	r18, X
     184:	49 2f       	mov	r20, r25
     186:	50 e0       	ldi	r21, 0x00	; 0
     188:	2f 70       	andi	r18, 0x0F	; 15
     18a:	30 e0       	ldi	r19, 0x00	; 0
     18c:	42 17       	cp	r20, r18
     18e:	53 07       	cpc	r21, r19
     190:	94 f3       	brlt	.-28     	; 0x176 <can_get_data+0x18>
    {
        *(p_can_message_data + data_index) = CANMSG;
    }
}
     192:	df 91       	pop	r29
     194:	cf 91       	pop	r28
     196:	08 95       	ret

00000198 <can_fixed_baudrate>:
//! @return Baudrate Status
//!         fixed = 1: baudrate performed
//------------------------------------------------------------------------------
uint8_t can_fixed_baudrate(uint8_t mode)
{
    Can_reset();
     198:	81 e0       	ldi	r24, 0x01	; 1
     19a:	80 93 d8 00 	sts	0x00D8, r24	; 0x8000d8 <__TEXT_REGION_LENGTH__+0x7e00d8>
    Can_conf_bt();
     19e:	8e e0       	ldi	r24, 0x0E	; 14
     1a0:	80 93 e2 00 	sts	0x00E2, r24	; 0x8000e2 <__TEXT_REGION_LENGTH__+0x7e00e2>
     1a4:	8c e0       	ldi	r24, 0x0C	; 12
     1a6:	80 93 e3 00 	sts	0x00E3, r24	; 0x8000e3 <__TEXT_REGION_LENGTH__+0x7e00e3>
     1aa:	87 e3       	ldi	r24, 0x37	; 55
     1ac:	80 93 e4 00 	sts	0x00E4, r24	; 0x8000e4 <__TEXT_REGION_LENGTH__+0x7e00e4>
    return 1;
}
     1b0:	81 e0       	ldi	r24, 0x01	; 1
     1b2:	08 95       	ret

000001b4 <can_init>:
//!         ==0: research of bit timing configuration failed
//!         ==1: baudrate performed 
//!
//------------------------------------------------------------------------------
uint8_t can_init(uint8_t mode)
{
     1b4:	f1 df       	rcall	.-30     	; 0x198 <can_fixed_baudrate>
     1b6:	88 23       	and	r24, r24
     1b8:	39 f0       	breq	.+14     	; 0x1c8 <can_init+0x14>
     1ba:	88 df       	rcall	.-240    	; 0xcc <can_clear_all_mob>
     1bc:	e8 ed       	ldi	r30, 0xD8	; 216
     1be:	f0 e0       	ldi	r31, 0x00	; 0
     1c0:	80 81       	ld	r24, Z
     1c2:	82 60       	ori	r24, 0x02	; 2
     1c4:	80 83       	st	Z, r24
     1c6:	81 e0       	ldi	r24, 0x01	; 1
     1c8:	08 95       	ret

000001ca <can_cmd>:
     1ca:	0f 93       	push	r16
     1cc:	1f 93       	push	r17
     1ce:	cf 93       	push	r28
     1d0:	df 93       	push	r29
     1d2:	00 d0       	rcall	.+0      	; 0x1d4 <can_cmd+0xa>
     1d4:	00 d0       	rcall	.+0      	; 0x1d6 <can_cmd+0xc>
     1d6:	cd b7       	in	r28, 0x3d	; 61
     1d8:	de b7       	in	r29, 0x3e	; 62
     1da:	fc 01       	movw	r30, r24
     1dc:	81 81       	ldd	r24, Z+1	; 0x01
     1de:	8c 30       	cpi	r24, 0x0C	; 12
     1e0:	99 f4       	brne	.+38     	; 0x208 <can_cmd+0x3e>
     1e2:	81 85       	ldd	r24, Z+9	; 0x09
     1e4:	80 36       	cpi	r24, 0x60	; 96
     1e6:	69 f4       	brne	.+26     	; 0x202 <can_cmd+0x38>
     1e8:	80 81       	ld	r24, Z
     1ea:	82 95       	swap	r24
     1ec:	80 7f       	andi	r24, 0xF0	; 240
     1ee:	80 93 ed 00 	sts	0x00ED, r24	; 0x8000ed <__TEXT_REGION_LENGTH__+0x7e00ed>
     1f2:	af ee       	ldi	r26, 0xEF	; 239
     1f4:	b0 e0       	ldi	r27, 0x00	; 0
     1f6:	8c 91       	ld	r24, X
     1f8:	8f 73       	andi	r24, 0x3F	; 63
     1fa:	8c 93       	st	X, r24
     1fc:	10 92 ee 00 	sts	0x00EE, r1	; 0x8000ee <__TEXT_REGION_LENGTH__+0x7e00ee>
     200:	10 82       	st	Z, r1
     202:	11 86       	std	Z+9, r1	; 0x09
     204:	80 e0       	ldi	r24, 0x00	; 0
     206:	36 c5       	rjmp	.+2668   	; 0xc74 <__stack+0x775>
     208:	8f 01       	movw	r16, r30
     20a:	71 df       	rcall	.-286    	; 0xee <can_get_mob_free>
     20c:	8f 3f       	cpi	r24, 0xFF	; 255
     20e:	09 f4       	brne	.+2      	; 0x212 <can_cmd+0x48>
     210:	2c c5       	rjmp	.+2648   	; 0xc6a <__stack+0x76b>
     212:	90 e6       	ldi	r25, 0x60	; 96
     214:	d8 01       	movw	r26, r16
     216:	19 96       	adiw	r26, 0x09	; 9
     218:	9c 93       	st	X, r25
     21a:	19 97       	sbiw	r26, 0x09	; 9
     21c:	8c 93       	st	X, r24
     21e:	82 95       	swap	r24
     220:	80 7f       	andi	r24, 0xF0	; 240
     222:	80 93 ed 00 	sts	0x00ED, r24	; 0x8000ed <__TEXT_REGION_LENGTH__+0x7e00ed>
     226:	ee ee       	ldi	r30, 0xEE	; 238
     228:	f0 e0       	ldi	r31, 0x00	; 0
     22a:	11 92       	st	Z+, r1
     22c:	e8 3f       	cpi	r30, 0xF8	; 248
     22e:	f1 05       	cpc	r31, r1
     230:	e1 f7       	brne	.-8      	; 0x22a <can_cmd+0x60>
     232:	d8 01       	movw	r26, r16
     234:	11 96       	adiw	r26, 0x01	; 1
     236:	ec 91       	ld	r30, X
     238:	8e 2f       	mov	r24, r30
     23a:	90 e0       	ldi	r25, 0x00	; 0
     23c:	fc 01       	movw	r30, r24
     23e:	31 97       	sbiw	r30, 0x01	; 1
     240:	eb 30       	cpi	r30, 0x0B	; 11
     242:	f1 05       	cpc	r31, r1
     244:	08 f0       	brcs	.+2      	; 0x248 <can_cmd+0x7e>
     246:	0d c5       	rjmp	.+2586   	; 0xc62 <__stack+0x763>
     248:	e2 5c       	subi	r30, 0xC2	; 194
     24a:	ff 4f       	sbci	r31, 0xFF	; 255
     24c:	a6 c7       	rjmp	.+3916   	; 0x119a <__tablejump2__>
     24e:	f8 01       	movw	r30, r16
     250:	86 81       	ldd	r24, Z+6	; 0x06
     252:	81 11       	cpse	r24, r1
     254:	f9 c3       	rjmp	.+2034   	; 0xa48 <__stack+0x549>
     256:	0a c4       	rjmp	.+2068   	; 0xa6c <__stack+0x56d>
     258:	d8 01       	movw	r26, r16
     25a:	1b 96       	adiw	r26, 0x0b	; 11
     25c:	8c 91       	ld	r24, X
     25e:	1b 97       	sbiw	r26, 0x0b	; 11
     260:	88 23       	and	r24, r24
     262:	e9 f1       	breq	.+122    	; 0x2de <can_cmd+0x114>
     264:	15 96       	adiw	r26, 0x05	; 5
     266:	8c 91       	ld	r24, X
     268:	15 97       	sbiw	r26, 0x05	; 5
     26a:	98 2f       	mov	r25, r24
     26c:	99 0f       	add	r25, r25
     26e:	99 0f       	add	r25, r25
     270:	99 0f       	add	r25, r25
     272:	14 96       	adiw	r26, 0x04	; 4
     274:	8c 91       	ld	r24, X
     276:	14 97       	sbiw	r26, 0x04	; 4
     278:	82 95       	swap	r24
     27a:	86 95       	lsr	r24
     27c:	87 70       	andi	r24, 0x07	; 7
     27e:	89 0f       	add	r24, r25
     280:	80 93 f3 00 	sts	0x00F3, r24	; 0x8000f3 <__TEXT_REGION_LENGTH__+0x7e00f3>
     284:	14 96       	adiw	r26, 0x04	; 4
     286:	8c 91       	ld	r24, X
     288:	14 97       	sbiw	r26, 0x04	; 4
     28a:	98 2f       	mov	r25, r24
     28c:	99 0f       	add	r25, r25
     28e:	99 0f       	add	r25, r25
     290:	99 0f       	add	r25, r25
     292:	13 96       	adiw	r26, 0x03	; 3
     294:	8c 91       	ld	r24, X
     296:	13 97       	sbiw	r26, 0x03	; 3
     298:	82 95       	swap	r24
     29a:	86 95       	lsr	r24
     29c:	87 70       	andi	r24, 0x07	; 7
     29e:	89 0f       	add	r24, r25
     2a0:	80 93 f2 00 	sts	0x00F2, r24	; 0x8000f2 <__TEXT_REGION_LENGTH__+0x7e00f2>
     2a4:	13 96       	adiw	r26, 0x03	; 3
     2a6:	8c 91       	ld	r24, X
     2a8:	13 97       	sbiw	r26, 0x03	; 3
     2aa:	98 2f       	mov	r25, r24
     2ac:	99 0f       	add	r25, r25
     2ae:	99 0f       	add	r25, r25
     2b0:	99 0f       	add	r25, r25
     2b2:	12 96       	adiw	r26, 0x02	; 2
     2b4:	8c 91       	ld	r24, X
     2b6:	12 97       	sbiw	r26, 0x02	; 2
     2b8:	82 95       	swap	r24
     2ba:	86 95       	lsr	r24
     2bc:	87 70       	andi	r24, 0x07	; 7
     2be:	89 0f       	add	r24, r25
     2c0:	80 93 f1 00 	sts	0x00F1, r24	; 0x8000f1 <__TEXT_REGION_LENGTH__+0x7e00f1>
     2c4:	12 96       	adiw	r26, 0x02	; 2
     2c6:	8c 91       	ld	r24, X
     2c8:	88 0f       	add	r24, r24
     2ca:	88 0f       	add	r24, r24
     2cc:	88 0f       	add	r24, r24
     2ce:	80 93 f0 00 	sts	0x00F0, r24	; 0x8000f0 <__TEXT_REGION_LENGTH__+0x7e00f0>
     2d2:	ef ee       	ldi	r30, 0xEF	; 239
     2d4:	f0 e0       	ldi	r31, 0x00	; 0
     2d6:	80 81       	ld	r24, Z
     2d8:	80 61       	ori	r24, 0x10	; 16
     2da:	80 83       	st	Z, r24
     2dc:	19 c0       	rjmp	.+50     	; 0x310 <can_cmd+0x146>
     2de:	f8 01       	movw	r30, r16
     2e0:	93 81       	ldd	r25, Z+3	; 0x03
     2e2:	82 81       	ldd	r24, Z+2	; 0x02
     2e4:	86 95       	lsr	r24
     2e6:	86 95       	lsr	r24
     2e8:	86 95       	lsr	r24
     2ea:	f0 e2       	ldi	r31, 0x20	; 32
     2ec:	9f 9f       	mul	r25, r31
     2ee:	80 0d       	add	r24, r0
     2f0:	11 24       	eor	r1, r1
     2f2:	80 93 f3 00 	sts	0x00F3, r24	; 0x8000f3 <__TEXT_REGION_LENGTH__+0x7e00f3>
     2f6:	d8 01       	movw	r26, r16
     2f8:	12 96       	adiw	r26, 0x02	; 2
     2fa:	8c 91       	ld	r24, X
     2fc:	82 95       	swap	r24
     2fe:	88 0f       	add	r24, r24
     300:	80 7e       	andi	r24, 0xE0	; 224
     302:	80 93 f2 00 	sts	0x00F2, r24	; 0x8000f2 <__TEXT_REGION_LENGTH__+0x7e00f2>
     306:	ef ee       	ldi	r30, 0xEF	; 239
     308:	f0 e0       	ldi	r31, 0x00	; 0
     30a:	80 81       	ld	r24, Z
     30c:	8f 7e       	andi	r24, 0xEF	; 239
     30e:	80 83       	st	Z, r24
     310:	f8 01       	movw	r30, r16
     312:	86 81       	ldd	r24, Z+6	; 0x06
     314:	88 23       	and	r24, r24
     316:	91 f0       	breq	.+36     	; 0x33c <can_cmd+0x172>
     318:	80 e0       	ldi	r24, 0x00	; 0
     31a:	2a ef       	ldi	r18, 0xFA	; 250
     31c:	30 e0       	ldi	r19, 0x00	; 0
     31e:	d8 01       	movw	r26, r16
     320:	17 96       	adiw	r26, 0x07	; 7
     322:	ed 91       	ld	r30, X+
     324:	fc 91       	ld	r31, X
     326:	18 97       	sbiw	r26, 0x08	; 8
     328:	e8 0f       	add	r30, r24
     32a:	f1 1d       	adc	r31, r1
     32c:	90 81       	ld	r25, Z
     32e:	f9 01       	movw	r30, r18
     330:	90 83       	st	Z, r25
     332:	8f 5f       	subi	r24, 0xFF	; 255
     334:	16 96       	adiw	r26, 0x06	; 6
     336:	9c 91       	ld	r25, X
     338:	89 17       	cp	r24, r25
     33a:	88 f3       	brcs	.-30     	; 0x31e <can_cmd+0x154>
     33c:	d8 01       	movw	r26, r16
     33e:	1a 96       	adiw	r26, 0x0a	; 10
     340:	8c 91       	ld	r24, X
     342:	88 23       	and	r24, r24
     344:	31 f0       	breq	.+12     	; 0x352 <can_cmd+0x188>
     346:	e0 ef       	ldi	r30, 0xF0	; 240
     348:	f0 e0       	ldi	r31, 0x00	; 0
     34a:	80 81       	ld	r24, Z
     34c:	84 60       	ori	r24, 0x04	; 4
     34e:	80 83       	st	Z, r24
     350:	05 c0       	rjmp	.+10     	; 0x35c <can_cmd+0x192>
     352:	e0 ef       	ldi	r30, 0xF0	; 240
     354:	f0 e0       	ldi	r31, 0x00	; 0
     356:	80 81       	ld	r24, Z
     358:	8b 7f       	andi	r24, 0xFB	; 251
     35a:	80 83       	st	Z, r24
     35c:	ef ee       	ldi	r30, 0xEF	; 239
     35e:	f0 e0       	ldi	r31, 0x00	; 0
     360:	90 81       	ld	r25, Z
     362:	d8 01       	movw	r26, r16
     364:	16 96       	adiw	r26, 0x06	; 6
     366:	8c 91       	ld	r24, X
     368:	89 2b       	or	r24, r25
     36a:	80 83       	st	Z, r24
     36c:	80 81       	ld	r24, Z
     36e:	8f 73       	andi	r24, 0x3F	; 63
     370:	80 83       	st	Z, r24
     372:	80 81       	ld	r24, Z
     374:	80 64       	ori	r24, 0x40	; 64
     376:	80 83       	st	Z, r24
     378:	80 e0       	ldi	r24, 0x00	; 0
     37a:	7c c4       	rjmp	.+2296   	; 0xc74 <__stack+0x775>
     37c:	f8 01       	movw	r30, r16
     37e:	83 85       	ldd	r24, Z+11	; 0x0b
     380:	88 23       	and	r24, r24
     382:	81 f1       	breq	.+96     	; 0x3e4 <can_cmd+0x21a>
     384:	85 81       	ldd	r24, Z+5	; 0x05
     386:	98 2f       	mov	r25, r24
     388:	99 0f       	add	r25, r25
     38a:	99 0f       	add	r25, r25
     38c:	99 0f       	add	r25, r25
     38e:	84 81       	ldd	r24, Z+4	; 0x04
     390:	82 95       	swap	r24
     392:	86 95       	lsr	r24
     394:	87 70       	andi	r24, 0x07	; 7
     396:	89 0f       	add	r24, r25
     398:	80 93 f3 00 	sts	0x00F3, r24	; 0x8000f3 <__TEXT_REGION_LENGTH__+0x7e00f3>
     39c:	84 81       	ldd	r24, Z+4	; 0x04
     39e:	98 2f       	mov	r25, r24
     3a0:	99 0f       	add	r25, r25
     3a2:	99 0f       	add	r25, r25
     3a4:	99 0f       	add	r25, r25
     3a6:	83 81       	ldd	r24, Z+3	; 0x03
     3a8:	82 95       	swap	r24
     3aa:	86 95       	lsr	r24
     3ac:	87 70       	andi	r24, 0x07	; 7
     3ae:	89 0f       	add	r24, r25
     3b0:	80 93 f2 00 	sts	0x00F2, r24	; 0x8000f2 <__TEXT_REGION_LENGTH__+0x7e00f2>
     3b4:	83 81       	ldd	r24, Z+3	; 0x03
     3b6:	98 2f       	mov	r25, r24
     3b8:	99 0f       	add	r25, r25
     3ba:	99 0f       	add	r25, r25
     3bc:	99 0f       	add	r25, r25
     3be:	82 81       	ldd	r24, Z+2	; 0x02
     3c0:	82 95       	swap	r24
     3c2:	86 95       	lsr	r24
     3c4:	87 70       	andi	r24, 0x07	; 7
     3c6:	89 0f       	add	r24, r25
     3c8:	80 93 f1 00 	sts	0x00F1, r24	; 0x8000f1 <__TEXT_REGION_LENGTH__+0x7e00f1>
     3cc:	82 81       	ldd	r24, Z+2	; 0x02
     3ce:	88 0f       	add	r24, r24
     3d0:	88 0f       	add	r24, r24
     3d2:	88 0f       	add	r24, r24
     3d4:	80 93 f0 00 	sts	0x00F0, r24	; 0x8000f0 <__TEXT_REGION_LENGTH__+0x7e00f0>
     3d8:	ef ee       	ldi	r30, 0xEF	; 239
     3da:	f0 e0       	ldi	r31, 0x00	; 0
     3dc:	80 81       	ld	r24, Z
     3de:	80 61       	ori	r24, 0x10	; 16
     3e0:	80 83       	st	Z, r24
     3e2:	17 c0       	rjmp	.+46     	; 0x412 <__LOCK_REGION_LENGTH__+0x12>
     3e4:	93 81       	ldd	r25, Z+3	; 0x03
     3e6:	82 81       	ldd	r24, Z+2	; 0x02
     3e8:	86 95       	lsr	r24
     3ea:	86 95       	lsr	r24
     3ec:	86 95       	lsr	r24
     3ee:	b0 e2       	ldi	r27, 0x20	; 32
     3f0:	9b 9f       	mul	r25, r27
     3f2:	80 0d       	add	r24, r0
     3f4:	11 24       	eor	r1, r1
     3f6:	80 93 f3 00 	sts	0x00F3, r24	; 0x8000f3 <__TEXT_REGION_LENGTH__+0x7e00f3>
     3fa:	f8 01       	movw	r30, r16
     3fc:	82 81       	ldd	r24, Z+2	; 0x02
     3fe:	82 95       	swap	r24
     400:	88 0f       	add	r24, r24
     402:	80 7e       	andi	r24, 0xE0	; 224
     404:	80 93 f2 00 	sts	0x00F2, r24	; 0x8000f2 <__TEXT_REGION_LENGTH__+0x7e00f2>
     408:	ef ee       	ldi	r30, 0xEF	; 239
     40a:	f0 e0       	ldi	r31, 0x00	; 0
     40c:	80 81       	ld	r24, Z
     40e:	8f 7e       	andi	r24, 0xEF	; 239
     410:	80 83       	st	Z, r24
     412:	d8 01       	movw	r26, r16
     414:	16 96       	adiw	r26, 0x06	; 6
     416:	8c 91       	ld	r24, X
     418:	88 23       	and	r24, r24
     41a:	91 f0       	breq	.+36     	; 0x440 <__LOCK_REGION_LENGTH__+0x40>
     41c:	80 e0       	ldi	r24, 0x00	; 0
     41e:	2a ef       	ldi	r18, 0xFA	; 250
     420:	30 e0       	ldi	r19, 0x00	; 0
     422:	d8 01       	movw	r26, r16
     424:	17 96       	adiw	r26, 0x07	; 7
     426:	ed 91       	ld	r30, X+
     428:	fc 91       	ld	r31, X
     42a:	18 97       	sbiw	r26, 0x08	; 8
     42c:	e8 0f       	add	r30, r24
     42e:	f1 1d       	adc	r31, r1
     430:	90 81       	ld	r25, Z
     432:	f9 01       	movw	r30, r18
     434:	90 83       	st	Z, r25
     436:	8f 5f       	subi	r24, 0xFF	; 255
     438:	16 96       	adiw	r26, 0x06	; 6
     43a:	9c 91       	ld	r25, X
     43c:	89 17       	cp	r24, r25
     43e:	88 f3       	brcs	.-30     	; 0x422 <__LOCK_REGION_LENGTH__+0x22>
     440:	d8 01       	movw	r26, r16
     442:	1a 96       	adiw	r26, 0x0a	; 10
     444:	1c 92       	st	X, r1
     446:	1a 97       	sbiw	r26, 0x0a	; 10
     448:	e0 ef       	ldi	r30, 0xF0	; 240
     44a:	f0 e0       	ldi	r31, 0x00	; 0
     44c:	80 81       	ld	r24, Z
     44e:	8b 7f       	andi	r24, 0xFB	; 251
     450:	80 83       	st	Z, r24
     452:	ef ee       	ldi	r30, 0xEF	; 239
     454:	f0 e0       	ldi	r31, 0x00	; 0
     456:	90 81       	ld	r25, Z
     458:	16 96       	adiw	r26, 0x06	; 6
     45a:	8c 91       	ld	r24, X
     45c:	89 2b       	or	r24, r25
     45e:	80 83       	st	Z, r24
     460:	80 81       	ld	r24, Z
     462:	8f 73       	andi	r24, 0x3F	; 63
     464:	80 83       	st	Z, r24
     466:	80 81       	ld	r24, Z
     468:	80 64       	ori	r24, 0x40	; 64
     46a:	80 83       	st	Z, r24
     46c:	80 e0       	ldi	r24, 0x00	; 0
     46e:	02 c4       	rjmp	.+2052   	; 0xc74 <__stack+0x775>
     470:	f8 01       	movw	r30, r16
     472:	83 85       	ldd	r24, Z+11	; 0x0b
     474:	88 23       	and	r24, r24
     476:	81 f1       	breq	.+96     	; 0x4d8 <__LOCK_REGION_LENGTH__+0xd8>
     478:	85 81       	ldd	r24, Z+5	; 0x05
     47a:	98 2f       	mov	r25, r24
     47c:	99 0f       	add	r25, r25
     47e:	99 0f       	add	r25, r25
     480:	99 0f       	add	r25, r25
     482:	84 81       	ldd	r24, Z+4	; 0x04
     484:	82 95       	swap	r24
     486:	86 95       	lsr	r24
     488:	87 70       	andi	r24, 0x07	; 7
     48a:	89 0f       	add	r24, r25
     48c:	80 93 f3 00 	sts	0x00F3, r24	; 0x8000f3 <__TEXT_REGION_LENGTH__+0x7e00f3>
     490:	84 81       	ldd	r24, Z+4	; 0x04
     492:	98 2f       	mov	r25, r24
     494:	99 0f       	add	r25, r25
     496:	99 0f       	add	r25, r25
     498:	99 0f       	add	r25, r25
     49a:	83 81       	ldd	r24, Z+3	; 0x03
     49c:	82 95       	swap	r24
     49e:	86 95       	lsr	r24
     4a0:	87 70       	andi	r24, 0x07	; 7
     4a2:	89 0f       	add	r24, r25
     4a4:	80 93 f2 00 	sts	0x00F2, r24	; 0x8000f2 <__TEXT_REGION_LENGTH__+0x7e00f2>
     4a8:	83 81       	ldd	r24, Z+3	; 0x03
     4aa:	98 2f       	mov	r25, r24
     4ac:	99 0f       	add	r25, r25
     4ae:	99 0f       	add	r25, r25
     4b0:	99 0f       	add	r25, r25
     4b2:	82 81       	ldd	r24, Z+2	; 0x02
     4b4:	82 95       	swap	r24
     4b6:	86 95       	lsr	r24
     4b8:	87 70       	andi	r24, 0x07	; 7
     4ba:	89 0f       	add	r24, r25
     4bc:	80 93 f1 00 	sts	0x00F1, r24	; 0x8000f1 <__TEXT_REGION_LENGTH__+0x7e00f1>
     4c0:	82 81       	ldd	r24, Z+2	; 0x02
     4c2:	88 0f       	add	r24, r24
     4c4:	88 0f       	add	r24, r24
     4c6:	88 0f       	add	r24, r24
     4c8:	80 93 f0 00 	sts	0x00F0, r24	; 0x8000f0 <__TEXT_REGION_LENGTH__+0x7e00f0>
     4cc:	ef ee       	ldi	r30, 0xEF	; 239
     4ce:	f0 e0       	ldi	r31, 0x00	; 0
     4d0:	80 81       	ld	r24, Z
     4d2:	80 61       	ori	r24, 0x10	; 16
     4d4:	80 83       	st	Z, r24
     4d6:	17 c0       	rjmp	.+46     	; 0x506 <__stack+0x7>
     4d8:	93 81       	ldd	r25, Z+3	; 0x03
     4da:	82 81       	ldd	r24, Z+2	; 0x02
     4dc:	86 95       	lsr	r24
     4de:	86 95       	lsr	r24
     4e0:	86 95       	lsr	r24
     4e2:	b0 e2       	ldi	r27, 0x20	; 32
     4e4:	9b 9f       	mul	r25, r27
     4e6:	80 0d       	add	r24, r0
     4e8:	11 24       	eor	r1, r1
     4ea:	80 93 f3 00 	sts	0x00F3, r24	; 0x8000f3 <__TEXT_REGION_LENGTH__+0x7e00f3>
     4ee:	f8 01       	movw	r30, r16
     4f0:	82 81       	ldd	r24, Z+2	; 0x02
     4f2:	82 95       	swap	r24
     4f4:	88 0f       	add	r24, r24
     4f6:	80 7e       	andi	r24, 0xE0	; 224
     4f8:	80 93 f2 00 	sts	0x00F2, r24	; 0x8000f2 <__TEXT_REGION_LENGTH__+0x7e00f2>
     4fc:	ef ee       	ldi	r30, 0xEF	; 239
     4fe:	f0 e0       	ldi	r31, 0x00	; 0
     500:	80 81       	ld	r24, Z
     502:	8f 7e       	andi	r24, 0xEF	; 239
     504:	80 83       	st	Z, r24
     506:	81 e0       	ldi	r24, 0x01	; 1
     508:	d8 01       	movw	r26, r16
     50a:	1a 96       	adiw	r26, 0x0a	; 10
     50c:	8c 93       	st	X, r24
     50e:	1a 97       	sbiw	r26, 0x0a	; 10
     510:	e0 ef       	ldi	r30, 0xF0	; 240
     512:	f0 e0       	ldi	r31, 0x00	; 0
     514:	80 81       	ld	r24, Z
     516:	84 60       	ori	r24, 0x04	; 4
     518:	80 83       	st	Z, r24
     51a:	ef ee       	ldi	r30, 0xEF	; 239
     51c:	f0 e0       	ldi	r31, 0x00	; 0
     51e:	90 81       	ld	r25, Z
     520:	16 96       	adiw	r26, 0x06	; 6
     522:	8c 91       	ld	r24, X
     524:	89 2b       	or	r24, r25
     526:	80 83       	st	Z, r24
     528:	80 81       	ld	r24, Z
     52a:	8f 73       	andi	r24, 0x3F	; 63
     52c:	80 83       	st	Z, r24
     52e:	80 81       	ld	r24, Z
     530:	80 64       	ori	r24, 0x40	; 64
     532:	80 83       	st	Z, r24
     534:	80 e0       	ldi	r24, 0x00	; 0
     536:	9e c3       	rjmp	.+1852   	; 0xc74 <__stack+0x775>
     538:	19 82       	std	Y+1, r1	; 0x01
     53a:	1a 82       	std	Y+2, r1	; 0x02
     53c:	1b 82       	std	Y+3, r1	; 0x03
     53e:	1c 82       	std	Y+4, r1	; 0x04
     540:	10 92 f7 00 	sts	0x00F7, r1	; 0x8000f7 <__TEXT_REGION_LENGTH__+0x7e00f7>
     544:	8b 81       	ldd	r24, Y+3	; 0x03
     546:	98 2f       	mov	r25, r24
     548:	99 0f       	add	r25, r25
     54a:	99 0f       	add	r25, r25
     54c:	99 0f       	add	r25, r25
     54e:	8a 81       	ldd	r24, Y+2	; 0x02
     550:	82 95       	swap	r24
     552:	86 95       	lsr	r24
     554:	87 70       	andi	r24, 0x07	; 7
     556:	89 0f       	add	r24, r25
     558:	80 93 f6 00 	sts	0x00F6, r24	; 0x8000f6 <__TEXT_REGION_LENGTH__+0x7e00f6>
     55c:	8a 81       	ldd	r24, Y+2	; 0x02
     55e:	98 2f       	mov	r25, r24
     560:	99 0f       	add	r25, r25
     562:	99 0f       	add	r25, r25
     564:	99 0f       	add	r25, r25
     566:	89 81       	ldd	r24, Y+1	; 0x01
     568:	82 95       	swap	r24
     56a:	86 95       	lsr	r24
     56c:	87 70       	andi	r24, 0x07	; 7
     56e:	89 0f       	add	r24, r25
     570:	80 93 f5 00 	sts	0x00F5, r24	; 0x8000f5 <__TEXT_REGION_LENGTH__+0x7e00f5>
     574:	89 81       	ldd	r24, Y+1	; 0x01
     576:	88 0f       	add	r24, r24
     578:	88 0f       	add	r24, r24
     57a:	88 0f       	add	r24, r24
     57c:	24 ef       	ldi	r18, 0xF4	; 244
     57e:	30 e0       	ldi	r19, 0x00	; 0
     580:	f9 01       	movw	r30, r18
     582:	80 83       	st	Z, r24
     584:	ef ee       	ldi	r30, 0xEF	; 239
     586:	f0 e0       	ldi	r31, 0x00	; 0
     588:	90 81       	ld	r25, Z
     58a:	d8 01       	movw	r26, r16
     58c:	16 96       	adiw	r26, 0x06	; 6
     58e:	8c 91       	ld	r24, X
     590:	89 2b       	or	r24, r25
     592:	80 83       	st	Z, r24
     594:	d9 01       	movw	r26, r18
     596:	8c 91       	ld	r24, X
     598:	8b 7f       	andi	r24, 0xFB	; 251
     59a:	8c 93       	st	X, r24
     59c:	8c 91       	ld	r24, X
     59e:	8e 7f       	andi	r24, 0xFE	; 254
     5a0:	8c 93       	st	X, r24
     5a2:	80 81       	ld	r24, Z
     5a4:	8f 73       	andi	r24, 0x3F	; 63
     5a6:	80 83       	st	Z, r24
     5a8:	80 81       	ld	r24, Z
     5aa:	80 68       	ori	r24, 0x80	; 128
     5ac:	80 83       	st	Z, r24
     5ae:	80 e0       	ldi	r24, 0x00	; 0
     5b0:	61 c3       	rjmp	.+1730   	; 0xc74 <__stack+0x775>
     5b2:	19 82       	std	Y+1, r1	; 0x01
     5b4:	1a 82       	std	Y+2, r1	; 0x02
     5b6:	1b 82       	std	Y+3, r1	; 0x03
     5b8:	1c 82       	std	Y+4, r1	; 0x04
     5ba:	10 92 f7 00 	sts	0x00F7, r1	; 0x8000f7 <__TEXT_REGION_LENGTH__+0x7e00f7>
     5be:	8b 81       	ldd	r24, Y+3	; 0x03
     5c0:	98 2f       	mov	r25, r24
     5c2:	99 0f       	add	r25, r25
     5c4:	99 0f       	add	r25, r25
     5c6:	99 0f       	add	r25, r25
     5c8:	8a 81       	ldd	r24, Y+2	; 0x02
     5ca:	82 95       	swap	r24
     5cc:	86 95       	lsr	r24
     5ce:	87 70       	andi	r24, 0x07	; 7
     5d0:	89 0f       	add	r24, r25
     5d2:	80 93 f6 00 	sts	0x00F6, r24	; 0x8000f6 <__TEXT_REGION_LENGTH__+0x7e00f6>
     5d6:	8a 81       	ldd	r24, Y+2	; 0x02
     5d8:	98 2f       	mov	r25, r24
     5da:	99 0f       	add	r25, r25
     5dc:	99 0f       	add	r25, r25
     5de:	99 0f       	add	r25, r25
     5e0:	89 81       	ldd	r24, Y+1	; 0x01
     5e2:	82 95       	swap	r24
     5e4:	86 95       	lsr	r24
     5e6:	87 70       	andi	r24, 0x07	; 7
     5e8:	89 0f       	add	r24, r25
     5ea:	80 93 f5 00 	sts	0x00F5, r24	; 0x8000f5 <__TEXT_REGION_LENGTH__+0x7e00f5>
     5ee:	89 81       	ldd	r24, Y+1	; 0x01
     5f0:	88 0f       	add	r24, r24
     5f2:	88 0f       	add	r24, r24
     5f4:	88 0f       	add	r24, r24
     5f6:	44 ef       	ldi	r20, 0xF4	; 244
     5f8:	50 e0       	ldi	r21, 0x00	; 0
     5fa:	fa 01       	movw	r30, r20
     5fc:	80 83       	st	Z, r24
     5fe:	ef ee       	ldi	r30, 0xEF	; 239
     600:	f0 e0       	ldi	r31, 0x00	; 0
     602:	90 81       	ld	r25, Z
     604:	d8 01       	movw	r26, r16
     606:	16 96       	adiw	r26, 0x06	; 6
     608:	8c 91       	ld	r24, X
     60a:	16 97       	sbiw	r26, 0x06	; 6
     60c:	89 2b       	or	r24, r25
     60e:	80 83       	st	Z, r24
     610:	1a 96       	adiw	r26, 0x0a	; 10
     612:	1c 92       	st	X, r1
     614:	da 01       	movw	r26, r20
     616:	8c 91       	ld	r24, X
     618:	84 60       	ori	r24, 0x04	; 4
     61a:	8c 93       	st	X, r24
     61c:	20 ef       	ldi	r18, 0xF0	; 240
     61e:	30 e0       	ldi	r19, 0x00	; 0
     620:	d9 01       	movw	r26, r18
     622:	8c 91       	ld	r24, X
     624:	8b 7f       	andi	r24, 0xFB	; 251
     626:	8c 93       	st	X, r24
     628:	da 01       	movw	r26, r20
     62a:	8c 91       	ld	r24, X
     62c:	8e 7f       	andi	r24, 0xFE	; 254
     62e:	8c 93       	st	X, r24
     630:	80 81       	ld	r24, Z
     632:	8f 73       	andi	r24, 0x3F	; 63
     634:	80 83       	st	Z, r24
     636:	80 81       	ld	r24, Z
     638:	80 68       	ori	r24, 0x80	; 128
     63a:	80 83       	st	Z, r24
     63c:	80 e0       	ldi	r24, 0x00	; 0
     63e:	1a c3       	rjmp	.+1588   	; 0xc74 <__stack+0x775>
     640:	19 82       	std	Y+1, r1	; 0x01
     642:	1a 82       	std	Y+2, r1	; 0x02
     644:	1b 82       	std	Y+3, r1	; 0x03
     646:	1c 82       	std	Y+4, r1	; 0x04
     648:	10 92 f7 00 	sts	0x00F7, r1	; 0x8000f7 <__TEXT_REGION_LENGTH__+0x7e00f7>
     64c:	8b 81       	ldd	r24, Y+3	; 0x03
     64e:	98 2f       	mov	r25, r24
     650:	99 0f       	add	r25, r25
     652:	99 0f       	add	r25, r25
     654:	99 0f       	add	r25, r25
     656:	8a 81       	ldd	r24, Y+2	; 0x02
     658:	82 95       	swap	r24
     65a:	86 95       	lsr	r24
     65c:	87 70       	andi	r24, 0x07	; 7
     65e:	89 0f       	add	r24, r25
     660:	80 93 f6 00 	sts	0x00F6, r24	; 0x8000f6 <__TEXT_REGION_LENGTH__+0x7e00f6>
     664:	8a 81       	ldd	r24, Y+2	; 0x02
     666:	98 2f       	mov	r25, r24
     668:	99 0f       	add	r25, r25
     66a:	99 0f       	add	r25, r25
     66c:	99 0f       	add	r25, r25
     66e:	89 81       	ldd	r24, Y+1	; 0x01
     670:	82 95       	swap	r24
     672:	86 95       	lsr	r24
     674:	87 70       	andi	r24, 0x07	; 7
     676:	89 0f       	add	r24, r25
     678:	80 93 f5 00 	sts	0x00F5, r24	; 0x8000f5 <__TEXT_REGION_LENGTH__+0x7e00f5>
     67c:	89 81       	ldd	r24, Y+1	; 0x01
     67e:	88 0f       	add	r24, r24
     680:	88 0f       	add	r24, r24
     682:	88 0f       	add	r24, r24
     684:	44 ef       	ldi	r20, 0xF4	; 244
     686:	50 e0       	ldi	r21, 0x00	; 0
     688:	fa 01       	movw	r30, r20
     68a:	80 83       	st	Z, r24
     68c:	ef ee       	ldi	r30, 0xEF	; 239
     68e:	f0 e0       	ldi	r31, 0x00	; 0
     690:	90 81       	ld	r25, Z
     692:	d8 01       	movw	r26, r16
     694:	16 96       	adiw	r26, 0x06	; 6
     696:	8c 91       	ld	r24, X
     698:	16 97       	sbiw	r26, 0x06	; 6
     69a:	89 2b       	or	r24, r25
     69c:	80 83       	st	Z, r24
     69e:	81 e0       	ldi	r24, 0x01	; 1
     6a0:	1a 96       	adiw	r26, 0x0a	; 10
     6a2:	8c 93       	st	X, r24
     6a4:	da 01       	movw	r26, r20
     6a6:	8c 91       	ld	r24, X
     6a8:	84 60       	ori	r24, 0x04	; 4
     6aa:	8c 93       	st	X, r24
     6ac:	20 ef       	ldi	r18, 0xF0	; 240
     6ae:	30 e0       	ldi	r19, 0x00	; 0
     6b0:	d9 01       	movw	r26, r18
     6b2:	8c 91       	ld	r24, X
     6b4:	84 60       	ori	r24, 0x04	; 4
     6b6:	8c 93       	st	X, r24
     6b8:	80 81       	ld	r24, Z
     6ba:	8f 7d       	andi	r24, 0xDF	; 223
     6bc:	80 83       	st	Z, r24
     6be:	da 01       	movw	r26, r20
     6c0:	8c 91       	ld	r24, X
     6c2:	8e 7f       	andi	r24, 0xFE	; 254
     6c4:	8c 93       	st	X, r24
     6c6:	80 81       	ld	r24, Z
     6c8:	8f 73       	andi	r24, 0x3F	; 63
     6ca:	80 83       	st	Z, r24
     6cc:	80 81       	ld	r24, Z
     6ce:	80 68       	ori	r24, 0x80	; 128
     6d0:	80 83       	st	Z, r24
     6d2:	80 e0       	ldi	r24, 0x00	; 0
     6d4:	cf c2       	rjmp	.+1438   	; 0xc74 <__stack+0x775>
     6d6:	f8 01       	movw	r30, r16
     6d8:	83 85       	ldd	r24, Z+11	; 0x0b
     6da:	88 23       	and	r24, r24
     6dc:	81 f1       	breq	.+96     	; 0x73e <__stack+0x23f>
     6de:	85 81       	ldd	r24, Z+5	; 0x05
     6e0:	98 2f       	mov	r25, r24
     6e2:	99 0f       	add	r25, r25
     6e4:	99 0f       	add	r25, r25
     6e6:	99 0f       	add	r25, r25
     6e8:	84 81       	ldd	r24, Z+4	; 0x04
     6ea:	82 95       	swap	r24
     6ec:	86 95       	lsr	r24
     6ee:	87 70       	andi	r24, 0x07	; 7
     6f0:	89 0f       	add	r24, r25
     6f2:	80 93 f3 00 	sts	0x00F3, r24	; 0x8000f3 <__TEXT_REGION_LENGTH__+0x7e00f3>
     6f6:	84 81       	ldd	r24, Z+4	; 0x04
     6f8:	98 2f       	mov	r25, r24
     6fa:	99 0f       	add	r25, r25
     6fc:	99 0f       	add	r25, r25
     6fe:	99 0f       	add	r25, r25
     700:	83 81       	ldd	r24, Z+3	; 0x03
     702:	82 95       	swap	r24
     704:	86 95       	lsr	r24
     706:	87 70       	andi	r24, 0x07	; 7
     708:	89 0f       	add	r24, r25
     70a:	80 93 f2 00 	sts	0x00F2, r24	; 0x8000f2 <__TEXT_REGION_LENGTH__+0x7e00f2>
     70e:	83 81       	ldd	r24, Z+3	; 0x03
     710:	98 2f       	mov	r25, r24
     712:	99 0f       	add	r25, r25
     714:	99 0f       	add	r25, r25
     716:	99 0f       	add	r25, r25
     718:	82 81       	ldd	r24, Z+2	; 0x02
     71a:	82 95       	swap	r24
     71c:	86 95       	lsr	r24
     71e:	87 70       	andi	r24, 0x07	; 7
     720:	89 0f       	add	r24, r25
     722:	80 93 f1 00 	sts	0x00F1, r24	; 0x8000f1 <__TEXT_REGION_LENGTH__+0x7e00f1>
     726:	82 81       	ldd	r24, Z+2	; 0x02
     728:	88 0f       	add	r24, r24
     72a:	88 0f       	add	r24, r24
     72c:	88 0f       	add	r24, r24
     72e:	80 93 f0 00 	sts	0x00F0, r24	; 0x8000f0 <__TEXT_REGION_LENGTH__+0x7e00f0>
     732:	ef ee       	ldi	r30, 0xEF	; 239
     734:	f0 e0       	ldi	r31, 0x00	; 0
     736:	80 81       	ld	r24, Z
     738:	80 61       	ori	r24, 0x10	; 16
     73a:	80 83       	st	Z, r24
     73c:	17 c0       	rjmp	.+46     	; 0x76c <__stack+0x26d>
     73e:	93 81       	ldd	r25, Z+3	; 0x03
     740:	82 81       	ldd	r24, Z+2	; 0x02
     742:	86 95       	lsr	r24
     744:	86 95       	lsr	r24
     746:	86 95       	lsr	r24
     748:	b0 e2       	ldi	r27, 0x20	; 32
     74a:	9b 9f       	mul	r25, r27
     74c:	80 0d       	add	r24, r0
     74e:	11 24       	eor	r1, r1
     750:	80 93 f3 00 	sts	0x00F3, r24	; 0x8000f3 <__TEXT_REGION_LENGTH__+0x7e00f3>
     754:	f8 01       	movw	r30, r16
     756:	82 81       	ldd	r24, Z+2	; 0x02
     758:	82 95       	swap	r24
     75a:	88 0f       	add	r24, r24
     75c:	80 7e       	andi	r24, 0xE0	; 224
     75e:	80 93 f2 00 	sts	0x00F2, r24	; 0x8000f2 <__TEXT_REGION_LENGTH__+0x7e00f2>
     762:	ef ee       	ldi	r30, 0xEF	; 239
     764:	f0 e0       	ldi	r31, 0x00	; 0
     766:	80 81       	ld	r24, Z
     768:	8f 7e       	andi	r24, 0xEF	; 239
     76a:	80 83       	st	Z, r24
     76c:	8f ef       	ldi	r24, 0xFF	; 255
     76e:	9f ef       	ldi	r25, 0xFF	; 255
     770:	dc 01       	movw	r26, r24
     772:	89 83       	std	Y+1, r24	; 0x01
     774:	9a 83       	std	Y+2, r25	; 0x02
     776:	ab 83       	std	Y+3, r26	; 0x03
     778:	bc 83       	std	Y+4, r27	; 0x04
     77a:	80 93 f7 00 	sts	0x00F7, r24	; 0x8000f7 <__TEXT_REGION_LENGTH__+0x7e00f7>
     77e:	8b 81       	ldd	r24, Y+3	; 0x03
     780:	98 2f       	mov	r25, r24
     782:	99 0f       	add	r25, r25
     784:	99 0f       	add	r25, r25
     786:	99 0f       	add	r25, r25
     788:	8a 81       	ldd	r24, Y+2	; 0x02
     78a:	82 95       	swap	r24
     78c:	86 95       	lsr	r24
     78e:	87 70       	andi	r24, 0x07	; 7
     790:	89 0f       	add	r24, r25
     792:	80 93 f6 00 	sts	0x00F6, r24	; 0x8000f6 <__TEXT_REGION_LENGTH__+0x7e00f6>
     796:	8a 81       	ldd	r24, Y+2	; 0x02
     798:	98 2f       	mov	r25, r24
     79a:	99 0f       	add	r25, r25
     79c:	99 0f       	add	r25, r25
     79e:	99 0f       	add	r25, r25
     7a0:	89 81       	ldd	r24, Y+1	; 0x01
     7a2:	82 95       	swap	r24
     7a4:	86 95       	lsr	r24
     7a6:	87 70       	andi	r24, 0x07	; 7
     7a8:	89 0f       	add	r24, r25
     7aa:	80 93 f5 00 	sts	0x00F5, r24	; 0x8000f5 <__TEXT_REGION_LENGTH__+0x7e00f5>
     7ae:	89 81       	ldd	r24, Y+1	; 0x01
     7b0:	88 0f       	add	r24, r24
     7b2:	88 0f       	add	r24, r24
     7b4:	88 0f       	add	r24, r24
     7b6:	24 ef       	ldi	r18, 0xF4	; 244
     7b8:	30 e0       	ldi	r19, 0x00	; 0
     7ba:	d9 01       	movw	r26, r18
     7bc:	8c 93       	st	X, r24
     7be:	ef ee       	ldi	r30, 0xEF	; 239
     7c0:	f0 e0       	ldi	r31, 0x00	; 0
     7c2:	90 81       	ld	r25, Z
     7c4:	d8 01       	movw	r26, r16
     7c6:	16 96       	adiw	r26, 0x06	; 6
     7c8:	8c 91       	ld	r24, X
     7ca:	89 2b       	or	r24, r25
     7cc:	80 83       	st	Z, r24
     7ce:	d9 01       	movw	r26, r18
     7d0:	8c 91       	ld	r24, X
     7d2:	8b 7f       	andi	r24, 0xFB	; 251
     7d4:	8c 93       	st	X, r24
     7d6:	8c 91       	ld	r24, X
     7d8:	81 60       	ori	r24, 0x01	; 1
     7da:	8c 93       	st	X, r24
     7dc:	80 81       	ld	r24, Z
     7de:	8f 73       	andi	r24, 0x3F	; 63
     7e0:	80 83       	st	Z, r24
     7e2:	80 81       	ld	r24, Z
     7e4:	80 68       	ori	r24, 0x80	; 128
     7e6:	80 83       	st	Z, r24
     7e8:	80 e0       	ldi	r24, 0x00	; 0
     7ea:	44 c2       	rjmp	.+1160   	; 0xc74 <__stack+0x775>
     7ec:	f8 01       	movw	r30, r16
     7ee:	83 85       	ldd	r24, Z+11	; 0x0b
     7f0:	88 23       	and	r24, r24
     7f2:	81 f1       	breq	.+96     	; 0x854 <__stack+0x355>
     7f4:	85 81       	ldd	r24, Z+5	; 0x05
     7f6:	98 2f       	mov	r25, r24
     7f8:	99 0f       	add	r25, r25
     7fa:	99 0f       	add	r25, r25
     7fc:	99 0f       	add	r25, r25
     7fe:	84 81       	ldd	r24, Z+4	; 0x04
     800:	82 95       	swap	r24
     802:	86 95       	lsr	r24
     804:	87 70       	andi	r24, 0x07	; 7
     806:	89 0f       	add	r24, r25
     808:	80 93 f3 00 	sts	0x00F3, r24	; 0x8000f3 <__TEXT_REGION_LENGTH__+0x7e00f3>
     80c:	84 81       	ldd	r24, Z+4	; 0x04
     80e:	98 2f       	mov	r25, r24
     810:	99 0f       	add	r25, r25
     812:	99 0f       	add	r25, r25
     814:	99 0f       	add	r25, r25
     816:	83 81       	ldd	r24, Z+3	; 0x03
     818:	82 95       	swap	r24
     81a:	86 95       	lsr	r24
     81c:	87 70       	andi	r24, 0x07	; 7
     81e:	89 0f       	add	r24, r25
     820:	80 93 f2 00 	sts	0x00F2, r24	; 0x8000f2 <__TEXT_REGION_LENGTH__+0x7e00f2>
     824:	83 81       	ldd	r24, Z+3	; 0x03
     826:	98 2f       	mov	r25, r24
     828:	99 0f       	add	r25, r25
     82a:	99 0f       	add	r25, r25
     82c:	99 0f       	add	r25, r25
     82e:	82 81       	ldd	r24, Z+2	; 0x02
     830:	82 95       	swap	r24
     832:	86 95       	lsr	r24
     834:	87 70       	andi	r24, 0x07	; 7
     836:	89 0f       	add	r24, r25
     838:	80 93 f1 00 	sts	0x00F1, r24	; 0x8000f1 <__TEXT_REGION_LENGTH__+0x7e00f1>
     83c:	82 81       	ldd	r24, Z+2	; 0x02
     83e:	88 0f       	add	r24, r24
     840:	88 0f       	add	r24, r24
     842:	88 0f       	add	r24, r24
     844:	80 93 f0 00 	sts	0x00F0, r24	; 0x8000f0 <__TEXT_REGION_LENGTH__+0x7e00f0>
     848:	ef ee       	ldi	r30, 0xEF	; 239
     84a:	f0 e0       	ldi	r31, 0x00	; 0
     84c:	80 81       	ld	r24, Z
     84e:	80 61       	ori	r24, 0x10	; 16
     850:	80 83       	st	Z, r24
     852:	17 c0       	rjmp	.+46     	; 0x882 <__stack+0x383>
     854:	93 81       	ldd	r25, Z+3	; 0x03
     856:	82 81       	ldd	r24, Z+2	; 0x02
     858:	86 95       	lsr	r24
     85a:	86 95       	lsr	r24
     85c:	86 95       	lsr	r24
     85e:	b0 e2       	ldi	r27, 0x20	; 32
     860:	9b 9f       	mul	r25, r27
     862:	80 0d       	add	r24, r0
     864:	11 24       	eor	r1, r1
     866:	80 93 f3 00 	sts	0x00F3, r24	; 0x8000f3 <__TEXT_REGION_LENGTH__+0x7e00f3>
     86a:	f8 01       	movw	r30, r16
     86c:	82 81       	ldd	r24, Z+2	; 0x02
     86e:	82 95       	swap	r24
     870:	88 0f       	add	r24, r24
     872:	80 7e       	andi	r24, 0xE0	; 224
     874:	80 93 f2 00 	sts	0x00F2, r24	; 0x8000f2 <__TEXT_REGION_LENGTH__+0x7e00f2>
     878:	ef ee       	ldi	r30, 0xEF	; 239
     87a:	f0 e0       	ldi	r31, 0x00	; 0
     87c:	80 81       	ld	r24, Z
     87e:	8f 7e       	andi	r24, 0xEF	; 239
     880:	80 83       	st	Z, r24
     882:	8f ef       	ldi	r24, 0xFF	; 255
     884:	9f ef       	ldi	r25, 0xFF	; 255
     886:	dc 01       	movw	r26, r24
     888:	89 83       	std	Y+1, r24	; 0x01
     88a:	9a 83       	std	Y+2, r25	; 0x02
     88c:	ab 83       	std	Y+3, r26	; 0x03
     88e:	bc 83       	std	Y+4, r27	; 0x04
     890:	80 93 f7 00 	sts	0x00F7, r24	; 0x8000f7 <__TEXT_REGION_LENGTH__+0x7e00f7>
     894:	8b 81       	ldd	r24, Y+3	; 0x03
     896:	98 2f       	mov	r25, r24
     898:	99 0f       	add	r25, r25
     89a:	99 0f       	add	r25, r25
     89c:	99 0f       	add	r25, r25
     89e:	8a 81       	ldd	r24, Y+2	; 0x02
     8a0:	82 95       	swap	r24
     8a2:	86 95       	lsr	r24
     8a4:	87 70       	andi	r24, 0x07	; 7
     8a6:	89 0f       	add	r24, r25
     8a8:	80 93 f6 00 	sts	0x00F6, r24	; 0x8000f6 <__TEXT_REGION_LENGTH__+0x7e00f6>
     8ac:	8a 81       	ldd	r24, Y+2	; 0x02
     8ae:	98 2f       	mov	r25, r24
     8b0:	99 0f       	add	r25, r25
     8b2:	99 0f       	add	r25, r25
     8b4:	99 0f       	add	r25, r25
     8b6:	89 81       	ldd	r24, Y+1	; 0x01
     8b8:	82 95       	swap	r24
     8ba:	86 95       	lsr	r24
     8bc:	87 70       	andi	r24, 0x07	; 7
     8be:	89 0f       	add	r24, r25
     8c0:	80 93 f5 00 	sts	0x00F5, r24	; 0x8000f5 <__TEXT_REGION_LENGTH__+0x7e00f5>
     8c4:	89 81       	ldd	r24, Y+1	; 0x01
     8c6:	88 0f       	add	r24, r24
     8c8:	88 0f       	add	r24, r24
     8ca:	88 0f       	add	r24, r24
     8cc:	44 ef       	ldi	r20, 0xF4	; 244
     8ce:	50 e0       	ldi	r21, 0x00	; 0
     8d0:	da 01       	movw	r26, r20
     8d2:	8c 93       	st	X, r24
     8d4:	ef ee       	ldi	r30, 0xEF	; 239
     8d6:	f0 e0       	ldi	r31, 0x00	; 0
     8d8:	90 81       	ld	r25, Z
     8da:	d8 01       	movw	r26, r16
     8dc:	16 96       	adiw	r26, 0x06	; 6
     8de:	8c 91       	ld	r24, X
     8e0:	16 97       	sbiw	r26, 0x06	; 6
     8e2:	89 2b       	or	r24, r25
     8e4:	80 83       	st	Z, r24
     8e6:	1a 96       	adiw	r26, 0x0a	; 10
     8e8:	1c 92       	st	X, r1
     8ea:	da 01       	movw	r26, r20
     8ec:	8c 91       	ld	r24, X
     8ee:	84 60       	ori	r24, 0x04	; 4
     8f0:	8c 93       	st	X, r24
     8f2:	20 ef       	ldi	r18, 0xF0	; 240
     8f4:	30 e0       	ldi	r19, 0x00	; 0
     8f6:	d9 01       	movw	r26, r18
     8f8:	8c 91       	ld	r24, X
     8fa:	8b 7f       	andi	r24, 0xFB	; 251
     8fc:	8c 93       	st	X, r24
     8fe:	da 01       	movw	r26, r20
     900:	8c 91       	ld	r24, X
     902:	81 60       	ori	r24, 0x01	; 1
     904:	8c 93       	st	X, r24
     906:	80 81       	ld	r24, Z
     908:	8f 73       	andi	r24, 0x3F	; 63
     90a:	80 83       	st	Z, r24
     90c:	80 81       	ld	r24, Z
     90e:	80 68       	ori	r24, 0x80	; 128
     910:	80 83       	st	Z, r24
     912:	80 e0       	ldi	r24, 0x00	; 0
     914:	af c1       	rjmp	.+862    	; 0xc74 <__stack+0x775>
     916:	f8 01       	movw	r30, r16
     918:	83 85       	ldd	r24, Z+11	; 0x0b
     91a:	88 23       	and	r24, r24
     91c:	81 f1       	breq	.+96     	; 0x97e <__stack+0x47f>
     91e:	85 81       	ldd	r24, Z+5	; 0x05
     920:	98 2f       	mov	r25, r24
     922:	99 0f       	add	r25, r25
     924:	99 0f       	add	r25, r25
     926:	99 0f       	add	r25, r25
     928:	84 81       	ldd	r24, Z+4	; 0x04
     92a:	82 95       	swap	r24
     92c:	86 95       	lsr	r24
     92e:	87 70       	andi	r24, 0x07	; 7
     930:	89 0f       	add	r24, r25
     932:	80 93 f3 00 	sts	0x00F3, r24	; 0x8000f3 <__TEXT_REGION_LENGTH__+0x7e00f3>
     936:	84 81       	ldd	r24, Z+4	; 0x04
     938:	98 2f       	mov	r25, r24
     93a:	99 0f       	add	r25, r25
     93c:	99 0f       	add	r25, r25
     93e:	99 0f       	add	r25, r25
     940:	83 81       	ldd	r24, Z+3	; 0x03
     942:	82 95       	swap	r24
     944:	86 95       	lsr	r24
     946:	87 70       	andi	r24, 0x07	; 7
     948:	89 0f       	add	r24, r25
     94a:	80 93 f2 00 	sts	0x00F2, r24	; 0x8000f2 <__TEXT_REGION_LENGTH__+0x7e00f2>
     94e:	83 81       	ldd	r24, Z+3	; 0x03
     950:	98 2f       	mov	r25, r24
     952:	99 0f       	add	r25, r25
     954:	99 0f       	add	r25, r25
     956:	99 0f       	add	r25, r25
     958:	82 81       	ldd	r24, Z+2	; 0x02
     95a:	82 95       	swap	r24
     95c:	86 95       	lsr	r24
     95e:	87 70       	andi	r24, 0x07	; 7
     960:	89 0f       	add	r24, r25
     962:	80 93 f1 00 	sts	0x00F1, r24	; 0x8000f1 <__TEXT_REGION_LENGTH__+0x7e00f1>
     966:	82 81       	ldd	r24, Z+2	; 0x02
     968:	88 0f       	add	r24, r24
     96a:	88 0f       	add	r24, r24
     96c:	88 0f       	add	r24, r24
     96e:	80 93 f0 00 	sts	0x00F0, r24	; 0x8000f0 <__TEXT_REGION_LENGTH__+0x7e00f0>
     972:	ef ee       	ldi	r30, 0xEF	; 239
     974:	f0 e0       	ldi	r31, 0x00	; 0
     976:	80 81       	ld	r24, Z
     978:	80 61       	ori	r24, 0x10	; 16
     97a:	80 83       	st	Z, r24
     97c:	17 c0       	rjmp	.+46     	; 0x9ac <__stack+0x4ad>
     97e:	93 81       	ldd	r25, Z+3	; 0x03
     980:	82 81       	ldd	r24, Z+2	; 0x02
     982:	86 95       	lsr	r24
     984:	86 95       	lsr	r24
     986:	86 95       	lsr	r24
     988:	b0 e2       	ldi	r27, 0x20	; 32
     98a:	9b 9f       	mul	r25, r27
     98c:	80 0d       	add	r24, r0
     98e:	11 24       	eor	r1, r1
     990:	80 93 f3 00 	sts	0x00F3, r24	; 0x8000f3 <__TEXT_REGION_LENGTH__+0x7e00f3>
     994:	f8 01       	movw	r30, r16
     996:	82 81       	ldd	r24, Z+2	; 0x02
     998:	82 95       	swap	r24
     99a:	88 0f       	add	r24, r24
     99c:	80 7e       	andi	r24, 0xE0	; 224
     99e:	80 93 f2 00 	sts	0x00F2, r24	; 0x8000f2 <__TEXT_REGION_LENGTH__+0x7e00f2>
     9a2:	ef ee       	ldi	r30, 0xEF	; 239
     9a4:	f0 e0       	ldi	r31, 0x00	; 0
     9a6:	80 81       	ld	r24, Z
     9a8:	8f 7e       	andi	r24, 0xEF	; 239
     9aa:	80 83       	st	Z, r24
     9ac:	8f ef       	ldi	r24, 0xFF	; 255
     9ae:	9f ef       	ldi	r25, 0xFF	; 255
     9b0:	dc 01       	movw	r26, r24
     9b2:	89 83       	std	Y+1, r24	; 0x01
     9b4:	9a 83       	std	Y+2, r25	; 0x02
     9b6:	ab 83       	std	Y+3, r26	; 0x03
     9b8:	bc 83       	std	Y+4, r27	; 0x04
     9ba:	80 93 f7 00 	sts	0x00F7, r24	; 0x8000f7 <__TEXT_REGION_LENGTH__+0x7e00f7>
     9be:	8b 81       	ldd	r24, Y+3	; 0x03
     9c0:	98 2f       	mov	r25, r24
     9c2:	99 0f       	add	r25, r25
     9c4:	99 0f       	add	r25, r25
     9c6:	99 0f       	add	r25, r25
     9c8:	8a 81       	ldd	r24, Y+2	; 0x02
     9ca:	82 95       	swap	r24
     9cc:	86 95       	lsr	r24
     9ce:	87 70       	andi	r24, 0x07	; 7
     9d0:	89 0f       	add	r24, r25
     9d2:	80 93 f6 00 	sts	0x00F6, r24	; 0x8000f6 <__TEXT_REGION_LENGTH__+0x7e00f6>
     9d6:	8a 81       	ldd	r24, Y+2	; 0x02
     9d8:	98 2f       	mov	r25, r24
     9da:	99 0f       	add	r25, r25
     9dc:	99 0f       	add	r25, r25
     9de:	99 0f       	add	r25, r25
     9e0:	89 81       	ldd	r24, Y+1	; 0x01
     9e2:	82 95       	swap	r24
     9e4:	86 95       	lsr	r24
     9e6:	87 70       	andi	r24, 0x07	; 7
     9e8:	89 0f       	add	r24, r25
     9ea:	80 93 f5 00 	sts	0x00F5, r24	; 0x8000f5 <__TEXT_REGION_LENGTH__+0x7e00f5>
     9ee:	89 81       	ldd	r24, Y+1	; 0x01
     9f0:	88 0f       	add	r24, r24
     9f2:	88 0f       	add	r24, r24
     9f4:	88 0f       	add	r24, r24
     9f6:	44 ef       	ldi	r20, 0xF4	; 244
     9f8:	50 e0       	ldi	r21, 0x00	; 0
     9fa:	da 01       	movw	r26, r20
     9fc:	8c 93       	st	X, r24
     9fe:	ef ee       	ldi	r30, 0xEF	; 239
     a00:	f0 e0       	ldi	r31, 0x00	; 0
     a02:	90 81       	ld	r25, Z
     a04:	d8 01       	movw	r26, r16
     a06:	16 96       	adiw	r26, 0x06	; 6
     a08:	8c 91       	ld	r24, X
     a0a:	16 97       	sbiw	r26, 0x06	; 6
     a0c:	89 2b       	or	r24, r25
     a0e:	80 83       	st	Z, r24
     a10:	81 e0       	ldi	r24, 0x01	; 1
     a12:	1a 96       	adiw	r26, 0x0a	; 10
     a14:	8c 93       	st	X, r24
     a16:	da 01       	movw	r26, r20
     a18:	8c 91       	ld	r24, X
     a1a:	84 60       	ori	r24, 0x04	; 4
     a1c:	8c 93       	st	X, r24
     a1e:	20 ef       	ldi	r18, 0xF0	; 240
     a20:	30 e0       	ldi	r19, 0x00	; 0
     a22:	d9 01       	movw	r26, r18
     a24:	8c 91       	ld	r24, X
     a26:	84 60       	ori	r24, 0x04	; 4
     a28:	8c 93       	st	X, r24
     a2a:	80 81       	ld	r24, Z
     a2c:	8f 7d       	andi	r24, 0xDF	; 223
     a2e:	80 83       	st	Z, r24
     a30:	da 01       	movw	r26, r20
     a32:	8c 91       	ld	r24, X
     a34:	81 60       	ori	r24, 0x01	; 1
     a36:	8c 93       	st	X, r24
     a38:	80 81       	ld	r24, Z
     a3a:	8f 73       	andi	r24, 0x3F	; 63
     a3c:	80 83       	st	Z, r24
     a3e:	80 81       	ld	r24, Z
     a40:	80 68       	ori	r24, 0x80	; 128
     a42:	80 83       	st	Z, r24
     a44:	80 e0       	ldi	r24, 0x00	; 0
     a46:	16 c1       	rjmp	.+556    	; 0xc74 <__stack+0x775>
     a48:	80 e0       	ldi	r24, 0x00	; 0
     a4a:	2a ef       	ldi	r18, 0xFA	; 250
     a4c:	30 e0       	ldi	r19, 0x00	; 0
     a4e:	d8 01       	movw	r26, r16
     a50:	17 96       	adiw	r26, 0x07	; 7
     a52:	ed 91       	ld	r30, X+
     a54:	fc 91       	ld	r31, X
     a56:	18 97       	sbiw	r26, 0x08	; 8
     a58:	e8 0f       	add	r30, r24
     a5a:	f1 1d       	adc	r31, r1
     a5c:	90 81       	ld	r25, Z
     a5e:	f9 01       	movw	r30, r18
     a60:	90 83       	st	Z, r25
     a62:	8f 5f       	subi	r24, 0xFF	; 255
     a64:	16 96       	adiw	r26, 0x06	; 6
     a66:	9c 91       	ld	r25, X
     a68:	89 17       	cp	r24, r25
     a6a:	88 f3       	brcs	.-30     	; 0xa4e <__stack+0x54f>
     a6c:	19 82       	std	Y+1, r1	; 0x01
     a6e:	1a 82       	std	Y+2, r1	; 0x02
     a70:	1b 82       	std	Y+3, r1	; 0x03
     a72:	1c 82       	std	Y+4, r1	; 0x04
     a74:	10 92 f7 00 	sts	0x00F7, r1	; 0x8000f7 <__TEXT_REGION_LENGTH__+0x7e00f7>
     a78:	8b 81       	ldd	r24, Y+3	; 0x03
     a7a:	98 2f       	mov	r25, r24
     a7c:	99 0f       	add	r25, r25
     a7e:	99 0f       	add	r25, r25
     a80:	99 0f       	add	r25, r25
     a82:	8a 81       	ldd	r24, Y+2	; 0x02
     a84:	82 95       	swap	r24
     a86:	86 95       	lsr	r24
     a88:	87 70       	andi	r24, 0x07	; 7
     a8a:	89 0f       	add	r24, r25
     a8c:	80 93 f6 00 	sts	0x00F6, r24	; 0x8000f6 <__TEXT_REGION_LENGTH__+0x7e00f6>
     a90:	8a 81       	ldd	r24, Y+2	; 0x02
     a92:	98 2f       	mov	r25, r24
     a94:	99 0f       	add	r25, r25
     a96:	99 0f       	add	r25, r25
     a98:	99 0f       	add	r25, r25
     a9a:	89 81       	ldd	r24, Y+1	; 0x01
     a9c:	82 95       	swap	r24
     a9e:	86 95       	lsr	r24
     aa0:	87 70       	andi	r24, 0x07	; 7
     aa2:	89 0f       	add	r24, r25
     aa4:	80 93 f5 00 	sts	0x00F5, r24	; 0x8000f5 <__TEXT_REGION_LENGTH__+0x7e00f5>
     aa8:	89 81       	ldd	r24, Y+1	; 0x01
     aaa:	88 0f       	add	r24, r24
     aac:	88 0f       	add	r24, r24
     aae:	88 0f       	add	r24, r24
     ab0:	44 ef       	ldi	r20, 0xF4	; 244
     ab2:	50 e0       	ldi	r21, 0x00	; 0
     ab4:	da 01       	movw	r26, r20
     ab6:	8c 93       	st	X, r24
     ab8:	ef ee       	ldi	r30, 0xEF	; 239
     aba:	f0 e0       	ldi	r31, 0x00	; 0
     abc:	90 81       	ld	r25, Z
     abe:	d8 01       	movw	r26, r16
     ac0:	16 96       	adiw	r26, 0x06	; 6
     ac2:	8c 91       	ld	r24, X
     ac4:	16 97       	sbiw	r26, 0x06	; 6
     ac6:	89 2b       	or	r24, r25
     ac8:	80 83       	st	Z, r24
     aca:	81 e0       	ldi	r24, 0x01	; 1
     acc:	1a 96       	adiw	r26, 0x0a	; 10
     ace:	8c 93       	st	X, r24
     ad0:	da 01       	movw	r26, r20
     ad2:	8c 91       	ld	r24, X
     ad4:	84 60       	ori	r24, 0x04	; 4
     ad6:	8c 93       	st	X, r24
     ad8:	20 ef       	ldi	r18, 0xF0	; 240
     ada:	30 e0       	ldi	r19, 0x00	; 0
     adc:	d9 01       	movw	r26, r18
     ade:	8c 91       	ld	r24, X
     ae0:	84 60       	ori	r24, 0x04	; 4
     ae2:	8c 93       	st	X, r24
     ae4:	80 81       	ld	r24, Z
     ae6:	80 62       	ori	r24, 0x20	; 32
     ae8:	80 83       	st	Z, r24
     aea:	da 01       	movw	r26, r20
     aec:	8c 91       	ld	r24, X
     aee:	8e 7f       	andi	r24, 0xFE	; 254
     af0:	8c 93       	st	X, r24
     af2:	80 81       	ld	r24, Z
     af4:	8f 73       	andi	r24, 0x3F	; 63
     af6:	80 83       	st	Z, r24
     af8:	80 81       	ld	r24, Z
     afa:	80 68       	ori	r24, 0x80	; 128
     afc:	80 83       	st	Z, r24
     afe:	80 e0       	ldi	r24, 0x00	; 0
     b00:	b9 c0       	rjmp	.+370    	; 0xc74 <__stack+0x775>
     b02:	f8 01       	movw	r30, r16
     b04:	83 85       	ldd	r24, Z+11	; 0x0b
     b06:	88 23       	and	r24, r24
     b08:	81 f1       	breq	.+96     	; 0xb6a <__stack+0x66b>
     b0a:	85 81       	ldd	r24, Z+5	; 0x05
     b0c:	98 2f       	mov	r25, r24
     b0e:	99 0f       	add	r25, r25
     b10:	99 0f       	add	r25, r25
     b12:	99 0f       	add	r25, r25
     b14:	84 81       	ldd	r24, Z+4	; 0x04
     b16:	82 95       	swap	r24
     b18:	86 95       	lsr	r24
     b1a:	87 70       	andi	r24, 0x07	; 7
     b1c:	89 0f       	add	r24, r25
     b1e:	80 93 f3 00 	sts	0x00F3, r24	; 0x8000f3 <__TEXT_REGION_LENGTH__+0x7e00f3>
     b22:	84 81       	ldd	r24, Z+4	; 0x04
     b24:	98 2f       	mov	r25, r24
     b26:	99 0f       	add	r25, r25
     b28:	99 0f       	add	r25, r25
     b2a:	99 0f       	add	r25, r25
     b2c:	83 81       	ldd	r24, Z+3	; 0x03
     b2e:	82 95       	swap	r24
     b30:	86 95       	lsr	r24
     b32:	87 70       	andi	r24, 0x07	; 7
     b34:	89 0f       	add	r24, r25
     b36:	80 93 f2 00 	sts	0x00F2, r24	; 0x8000f2 <__TEXT_REGION_LENGTH__+0x7e00f2>
     b3a:	83 81       	ldd	r24, Z+3	; 0x03
     b3c:	98 2f       	mov	r25, r24
     b3e:	99 0f       	add	r25, r25
     b40:	99 0f       	add	r25, r25
     b42:	99 0f       	add	r25, r25
     b44:	82 81       	ldd	r24, Z+2	; 0x02
     b46:	82 95       	swap	r24
     b48:	86 95       	lsr	r24
     b4a:	87 70       	andi	r24, 0x07	; 7
     b4c:	89 0f       	add	r24, r25
     b4e:	80 93 f1 00 	sts	0x00F1, r24	; 0x8000f1 <__TEXT_REGION_LENGTH__+0x7e00f1>
     b52:	82 81       	ldd	r24, Z+2	; 0x02
     b54:	88 0f       	add	r24, r24
     b56:	88 0f       	add	r24, r24
     b58:	88 0f       	add	r24, r24
     b5a:	80 93 f0 00 	sts	0x00F0, r24	; 0x8000f0 <__TEXT_REGION_LENGTH__+0x7e00f0>
     b5e:	ef ee       	ldi	r30, 0xEF	; 239
     b60:	f0 e0       	ldi	r31, 0x00	; 0
     b62:	80 81       	ld	r24, Z
     b64:	80 61       	ori	r24, 0x10	; 16
     b66:	80 83       	st	Z, r24
     b68:	17 c0       	rjmp	.+46     	; 0xb98 <__stack+0x699>
     b6a:	93 81       	ldd	r25, Z+3	; 0x03
     b6c:	82 81       	ldd	r24, Z+2	; 0x02
     b6e:	86 95       	lsr	r24
     b70:	86 95       	lsr	r24
     b72:	86 95       	lsr	r24
     b74:	b0 e2       	ldi	r27, 0x20	; 32
     b76:	9b 9f       	mul	r25, r27
     b78:	80 0d       	add	r24, r0
     b7a:	11 24       	eor	r1, r1
     b7c:	80 93 f3 00 	sts	0x00F3, r24	; 0x8000f3 <__TEXT_REGION_LENGTH__+0x7e00f3>
     b80:	f8 01       	movw	r30, r16
     b82:	82 81       	ldd	r24, Z+2	; 0x02
     b84:	82 95       	swap	r24
     b86:	88 0f       	add	r24, r24
     b88:	80 7e       	andi	r24, 0xE0	; 224
     b8a:	80 93 f2 00 	sts	0x00F2, r24	; 0x8000f2 <__TEXT_REGION_LENGTH__+0x7e00f2>
     b8e:	ef ee       	ldi	r30, 0xEF	; 239
     b90:	f0 e0       	ldi	r31, 0x00	; 0
     b92:	80 81       	ld	r24, Z
     b94:	8f 7e       	andi	r24, 0xEF	; 239
     b96:	80 83       	st	Z, r24
     b98:	d8 01       	movw	r26, r16
     b9a:	16 96       	adiw	r26, 0x06	; 6
     b9c:	8c 91       	ld	r24, X
     b9e:	88 23       	and	r24, r24
     ba0:	91 f0       	breq	.+36     	; 0xbc6 <__stack+0x6c7>
     ba2:	80 e0       	ldi	r24, 0x00	; 0
     ba4:	2a ef       	ldi	r18, 0xFA	; 250
     ba6:	30 e0       	ldi	r19, 0x00	; 0
     ba8:	d8 01       	movw	r26, r16
     baa:	17 96       	adiw	r26, 0x07	; 7
     bac:	ed 91       	ld	r30, X+
     bae:	fc 91       	ld	r31, X
     bb0:	18 97       	sbiw	r26, 0x08	; 8
     bb2:	e8 0f       	add	r30, r24
     bb4:	f1 1d       	adc	r31, r1
     bb6:	90 81       	ld	r25, Z
     bb8:	f9 01       	movw	r30, r18
     bba:	90 83       	st	Z, r25
     bbc:	8f 5f       	subi	r24, 0xFF	; 255
     bbe:	16 96       	adiw	r26, 0x06	; 6
     bc0:	9c 91       	ld	r25, X
     bc2:	89 17       	cp	r24, r25
     bc4:	88 f3       	brcs	.-30     	; 0xba8 <__stack+0x6a9>
     bc6:	8f ef       	ldi	r24, 0xFF	; 255
     bc8:	9f ef       	ldi	r25, 0xFF	; 255
     bca:	dc 01       	movw	r26, r24
     bcc:	89 83       	std	Y+1, r24	; 0x01
     bce:	9a 83       	std	Y+2, r25	; 0x02
     bd0:	ab 83       	std	Y+3, r26	; 0x03
     bd2:	bc 83       	std	Y+4, r27	; 0x04
     bd4:	80 93 f7 00 	sts	0x00F7, r24	; 0x8000f7 <__TEXT_REGION_LENGTH__+0x7e00f7>
     bd8:	8b 81       	ldd	r24, Y+3	; 0x03
     bda:	98 2f       	mov	r25, r24
     bdc:	99 0f       	add	r25, r25
     bde:	99 0f       	add	r25, r25
     be0:	99 0f       	add	r25, r25
     be2:	8a 81       	ldd	r24, Y+2	; 0x02
     be4:	82 95       	swap	r24
     be6:	86 95       	lsr	r24
     be8:	87 70       	andi	r24, 0x07	; 7
     bea:	89 0f       	add	r24, r25
     bec:	80 93 f6 00 	sts	0x00F6, r24	; 0x8000f6 <__TEXT_REGION_LENGTH__+0x7e00f6>
     bf0:	8a 81       	ldd	r24, Y+2	; 0x02
     bf2:	98 2f       	mov	r25, r24
     bf4:	99 0f       	add	r25, r25
     bf6:	99 0f       	add	r25, r25
     bf8:	99 0f       	add	r25, r25
     bfa:	89 81       	ldd	r24, Y+1	; 0x01
     bfc:	82 95       	swap	r24
     bfe:	86 95       	lsr	r24
     c00:	87 70       	andi	r24, 0x07	; 7
     c02:	89 0f       	add	r24, r25
     c04:	80 93 f5 00 	sts	0x00F5, r24	; 0x8000f5 <__TEXT_REGION_LENGTH__+0x7e00f5>
     c08:	89 81       	ldd	r24, Y+1	; 0x01
     c0a:	88 0f       	add	r24, r24
     c0c:	88 0f       	add	r24, r24
     c0e:	88 0f       	add	r24, r24
     c10:	44 ef       	ldi	r20, 0xF4	; 244
     c12:	50 e0       	ldi	r21, 0x00	; 0
     c14:	da 01       	movw	r26, r20
     c16:	8c 93       	st	X, r24
     c18:	ef ee       	ldi	r30, 0xEF	; 239
     c1a:	f0 e0       	ldi	r31, 0x00	; 0
     c1c:	90 81       	ld	r25, Z
     c1e:	d8 01       	movw	r26, r16
     c20:	16 96       	adiw	r26, 0x06	; 6
     c22:	8c 91       	ld	r24, X
     c24:	16 97       	sbiw	r26, 0x06	; 6
     c26:	89 2b       	or	r24, r25
     c28:	80 83       	st	Z, r24
     c2a:	81 e0       	ldi	r24, 0x01	; 1
     c2c:	1a 96       	adiw	r26, 0x0a	; 10
     c2e:	8c 93       	st	X, r24
     c30:	da 01       	movw	r26, r20
     c32:	8c 91       	ld	r24, X
     c34:	84 60       	ori	r24, 0x04	; 4
     c36:	8c 93       	st	X, r24
     c38:	20 ef       	ldi	r18, 0xF0	; 240
     c3a:	30 e0       	ldi	r19, 0x00	; 0
     c3c:	d9 01       	movw	r26, r18
     c3e:	8c 91       	ld	r24, X
     c40:	84 60       	ori	r24, 0x04	; 4
     c42:	8c 93       	st	X, r24
     c44:	80 81       	ld	r24, Z
     c46:	80 62       	ori	r24, 0x20	; 32
     c48:	80 83       	st	Z, r24
     c4a:	da 01       	movw	r26, r20
     c4c:	8c 91       	ld	r24, X
     c4e:	81 60       	ori	r24, 0x01	; 1
     c50:	8c 93       	st	X, r24
     c52:	80 81       	ld	r24, Z
     c54:	8f 73       	andi	r24, 0x3F	; 63
     c56:	80 83       	st	Z, r24
     c58:	80 81       	ld	r24, Z
     c5a:	80 68       	ori	r24, 0x80	; 128
     c5c:	80 83       	st	Z, r24
     c5e:	80 e0       	ldi	r24, 0x00	; 0
     c60:	09 c0       	rjmp	.+18     	; 0xc74 <__stack+0x775>
     c62:	f8 01       	movw	r30, r16
     c64:	11 86       	std	Z+9, r1	; 0x09
     c66:	80 e0       	ldi	r24, 0x00	; 0
     c68:	05 c0       	rjmp	.+10     	; 0xc74 <__stack+0x775>
     c6a:	8f e1       	ldi	r24, 0x1F	; 31
     c6c:	d8 01       	movw	r26, r16
     c6e:	19 96       	adiw	r26, 0x09	; 9
     c70:	8c 93       	st	X, r24
     c72:	8f ef       	ldi	r24, 0xFF	; 255
     c74:	0f 90       	pop	r0
     c76:	0f 90       	pop	r0
     c78:	0f 90       	pop	r0
     c7a:	0f 90       	pop	r0
     c7c:	df 91       	pop	r29
     c7e:	cf 91       	pop	r28
     c80:	1f 91       	pop	r17
     c82:	0f 91       	pop	r16
     c84:	08 95       	ret

00000c86 <can_get_status>:
     c86:	1f 93       	push	r17
     c88:	cf 93       	push	r28
     c8a:	df 93       	push	r29
     c8c:	fc 01       	movw	r30, r24
     c8e:	91 85       	ldd	r25, Z+9	; 0x09
     c90:	99 23       	and	r25, r25
     c92:	09 f4       	brne	.+2      	; 0xc96 <can_get_status+0x10>
     c94:	8b c0       	rjmp	.+278    	; 0xdac <can_get_status+0x126>
     c96:	9f 31       	cpi	r25, 0x1F	; 31
     c98:	09 f4       	brne	.+2      	; 0xc9c <can_get_status+0x16>
     c9a:	8a c0       	rjmp	.+276    	; 0xdb0 <can_get_status+0x12a>
     c9c:	9f 3f       	cpi	r25, 0xFF	; 255
     c9e:	09 f4       	brne	.+2      	; 0xca2 <can_get_status+0x1c>
     ca0:	89 c0       	rjmp	.+274    	; 0xdb4 <can_get_status+0x12e>
     ca2:	ef 01       	movw	r28, r30
     ca4:	80 81       	ld	r24, Z
     ca6:	82 95       	swap	r24
     ca8:	80 7f       	andi	r24, 0xF0	; 240
     caa:	80 93 ed 00 	sts	0x00ED, r24	; 0x8000ed <__TEXT_REGION_LENGTH__+0x7e00ed>
     cae:	3f da       	rcall	.-2946   	; 0x12e <can_get_mob_status>
     cb0:	18 2f       	mov	r17, r24
     cb2:	80 32       	cpi	r24, 0x20	; 32
     cb4:	59 f0       	breq	.+22     	; 0xccc <can_get_status+0x46>
     cb6:	20 f4       	brcc	.+8      	; 0xcc0 <can_get_status+0x3a>
     cb8:	88 23       	and	r24, r24
     cba:	09 f4       	brne	.+2      	; 0xcbe <can_get_status+0x38>
     cbc:	7d c0       	rjmp	.+250    	; 0xdb8 <can_get_status+0x132>
     cbe:	6c c0       	rjmp	.+216    	; 0xd98 <can_get_status+0x112>
     cc0:	80 34       	cpi	r24, 0x40	; 64
     cc2:	09 f4       	brne	.+2      	; 0xcc6 <can_get_status+0x40>
     cc4:	5e c0       	rjmp	.+188    	; 0xd82 <can_get_status+0xfc>
     cc6:	80 3a       	cpi	r24, 0xA0	; 160
     cc8:	09 f0       	breq	.+2      	; 0xccc <can_get_status+0x46>
     cca:	66 c0       	rjmp	.+204    	; 0xd98 <can_get_status+0x112>
     ccc:	80 91 ef 00 	lds	r24, 0x00EF	; 0x8000ef <__TEXT_REGION_LENGTH__+0x7e00ef>
     cd0:	8f 70       	andi	r24, 0x0F	; 15
     cd2:	8e 83       	std	Y+6, r24	; 0x06
     cd4:	8f 81       	ldd	r24, Y+7	; 0x07
     cd6:	98 85       	ldd	r25, Y+8	; 0x08
     cd8:	42 da       	rcall	.-2940   	; 0x15e <can_get_data>
     cda:	90 91 f0 00 	lds	r25, 0x00F0	; 0x8000f0 <__TEXT_REGION_LENGTH__+0x7e00f0>
     cde:	81 e0       	ldi	r24, 0x01	; 1
     ce0:	92 ff       	sbrs	r25, 2
     ce2:	80 e0       	ldi	r24, 0x00	; 0
     ce4:	8a 87       	std	Y+10, r24	; 0x0a
     ce6:	80 91 ef 00 	lds	r24, 0x00EF	; 0x8000ef <__TEXT_REGION_LENGTH__+0x7e00ef>
     cea:	84 ff       	sbrs	r24, 4
     cec:	2d c0       	rjmp	.+90     	; 0xd48 <can_get_status+0xc2>
     cee:	81 e0       	ldi	r24, 0x01	; 1
     cf0:	8b 87       	std	Y+11, r24	; 0x0b
     cf2:	e3 ef       	ldi	r30, 0xF3	; 243
     cf4:	f0 e0       	ldi	r31, 0x00	; 0
     cf6:	80 81       	ld	r24, Z
     cf8:	86 95       	lsr	r24
     cfa:	86 95       	lsr	r24
     cfc:	86 95       	lsr	r24
     cfe:	8d 83       	std	Y+5, r24	; 0x05
     d00:	a2 ef       	ldi	r26, 0xF2	; 242
     d02:	b0 e0       	ldi	r27, 0x00	; 0
     d04:	8c 91       	ld	r24, X
     d06:	90 81       	ld	r25, Z
     d08:	86 95       	lsr	r24
     d0a:	86 95       	lsr	r24
     d0c:	86 95       	lsr	r24
     d0e:	20 e2       	ldi	r18, 0x20	; 32
     d10:	92 9f       	mul	r25, r18
     d12:	80 0d       	add	r24, r0
     d14:	11 24       	eor	r1, r1
     d16:	8c 83       	std	Y+4, r24	; 0x04
     d18:	e1 ef       	ldi	r30, 0xF1	; 241
     d1a:	f0 e0       	ldi	r31, 0x00	; 0
     d1c:	80 81       	ld	r24, Z
     d1e:	9c 91       	ld	r25, X
     d20:	86 95       	lsr	r24
     d22:	86 95       	lsr	r24
     d24:	86 95       	lsr	r24
     d26:	20 e2       	ldi	r18, 0x20	; 32
     d28:	92 9f       	mul	r25, r18
     d2a:	80 0d       	add	r24, r0
     d2c:	11 24       	eor	r1, r1
     d2e:	8b 83       	std	Y+3, r24	; 0x03
     d30:	80 91 f0 00 	lds	r24, 0x00F0	; 0x8000f0 <__TEXT_REGION_LENGTH__+0x7e00f0>
     d34:	90 81       	ld	r25, Z
     d36:	86 95       	lsr	r24
     d38:	86 95       	lsr	r24
     d3a:	86 95       	lsr	r24
     d3c:	20 e2       	ldi	r18, 0x20	; 32
     d3e:	92 9f       	mul	r25, r18
     d40:	80 0d       	add	r24, r0
     d42:	11 24       	eor	r1, r1
     d44:	8a 83       	std	Y+2, r24	; 0x02
     d46:	13 c0       	rjmp	.+38     	; 0xd6e <can_get_status+0xe8>
     d48:	1b 86       	std	Y+11, r1	; 0x0b
     d4a:	e3 ef       	ldi	r30, 0xF3	; 243
     d4c:	f0 e0       	ldi	r31, 0x00	; 0
     d4e:	80 81       	ld	r24, Z
     d50:	82 95       	swap	r24
     d52:	86 95       	lsr	r24
     d54:	87 70       	andi	r24, 0x07	; 7
     d56:	8b 83       	std	Y+3, r24	; 0x03
     d58:	90 91 f2 00 	lds	r25, 0x00F2	; 0x8000f2 <__TEXT_REGION_LENGTH__+0x7e00f2>
     d5c:	80 81       	ld	r24, Z
     d5e:	92 95       	swap	r25
     d60:	96 95       	lsr	r25
     d62:	97 70       	andi	r25, 0x07	; 7
     d64:	88 0f       	add	r24, r24
     d66:	88 0f       	add	r24, r24
     d68:	88 0f       	add	r24, r24
     d6a:	89 0f       	add	r24, r25
     d6c:	8a 83       	std	Y+2, r24	; 0x02
     d6e:	19 87       	std	Y+9, r17	; 0x09
     d70:	ef ee       	ldi	r30, 0xEF	; 239
     d72:	f0 e0       	ldi	r31, 0x00	; 0
     d74:	80 81       	ld	r24, Z
     d76:	8f 73       	andi	r24, 0x3F	; 63
     d78:	80 83       	st	Z, r24
     d7a:	10 92 ee 00 	sts	0x00EE, r1	; 0x8000ee <__TEXT_REGION_LENGTH__+0x7e00ee>
     d7e:	80 e0       	ldi	r24, 0x00	; 0
     d80:	1c c0       	rjmp	.+56     	; 0xdba <can_get_status+0x134>
     d82:	80 e4       	ldi	r24, 0x40	; 64
     d84:	89 87       	std	Y+9, r24	; 0x09
     d86:	ef ee       	ldi	r30, 0xEF	; 239
     d88:	f0 e0       	ldi	r31, 0x00	; 0
     d8a:	80 81       	ld	r24, Z
     d8c:	8f 73       	andi	r24, 0x3F	; 63
     d8e:	80 83       	st	Z, r24
     d90:	10 92 ee 00 	sts	0x00EE, r1	; 0x8000ee <__TEXT_REGION_LENGTH__+0x7e00ee>
     d94:	80 e0       	ldi	r24, 0x00	; 0
     d96:	11 c0       	rjmp	.+34     	; 0xdba <can_get_status+0x134>
     d98:	19 87       	std	Y+9, r17	; 0x09
     d9a:	ef ee       	ldi	r30, 0xEF	; 239
     d9c:	f0 e0       	ldi	r31, 0x00	; 0
     d9e:	80 81       	ld	r24, Z
     da0:	8f 73       	andi	r24, 0x3F	; 63
     da2:	80 83       	st	Z, r24
     da4:	10 92 ee 00 	sts	0x00EE, r1	; 0x8000ee <__TEXT_REGION_LENGTH__+0x7e00ee>
     da8:	82 e0       	ldi	r24, 0x02	; 2
     daa:	07 c0       	rjmp	.+14     	; 0xdba <can_get_status+0x134>
     dac:	82 e0       	ldi	r24, 0x02	; 2
     dae:	05 c0       	rjmp	.+10     	; 0xdba <can_get_status+0x134>
     db0:	82 e0       	ldi	r24, 0x02	; 2
     db2:	03 c0       	rjmp	.+6      	; 0xdba <can_get_status+0x134>
     db4:	82 e0       	ldi	r24, 0x02	; 2
     db6:	01 c0       	rjmp	.+2      	; 0xdba <can_get_status+0x134>
     db8:	81 e0       	ldi	r24, 0x01	; 1
     dba:	df 91       	pop	r29
     dbc:	cf 91       	pop	r28
     dbe:	1f 91       	pop	r17
     dc0:	08 95       	ret

00000dc2 <main>:
uint8_t can_buffer_txx[CAN_BUFFER_SIZE];


int main(void)
{
	uart_init(9600);
     dc2:	80 e8       	ldi	r24, 0x80	; 128
     dc4:	95 e2       	ldi	r25, 0x25	; 37
     dc6:	7f d1       	rcall	.+766    	; 0x10c6 <uart_init>
	
	//fdevopen(&uart_putc, NULL);
	//fdevopen((int (*)(char,  struct __file *))&uart_getc, NULL);
	
	fdevopen(&uart_putc, &uart_getc);
     dc8:	66 ea       	ldi	r22, 0xA6	; 166
     dca:	78 e0       	ldi	r23, 0x08	; 8
     dcc:	8d e8       	ldi	r24, 0x8D	; 141
     dce:	98 e0       	ldi	r25, 0x08	; 8
	can_init(0);
     dd0:	0c d2       	rcall	.+1048   	; 0x11ea <fdevopen>
     dd2:	80 e0       	ldi	r24, 0x00	; 0
     dd4:	ef d9       	rcall	.-3106   	; 0x1b4 <can_init>
	CANGIE |= (1 << ENIT);
     dd6:	eb ed       	ldi	r30, 0xDB	; 219
     dd8:	f0 e0       	ldi	r31, 0x00	; 0
     dda:	80 81       	ld	r24, Z
     ddc:	80 68       	ori	r24, 0x80	; 128
     dde:	80 83       	st	Z, r24
	sei();
     de0:	78 94       	sei
	
	can_buffer_rx[0] = 0x00; //Byte 0
     de2:	e4 e8       	ldi	r30, 0x84	; 132
     de4:	f2 e0       	ldi	r31, 0x02	; 2
     de6:	10 82       	st	Z, r1
	can_buffer_rx[1] = 0x00; //Software throttle
     de8:	11 82       	std	Z+1, r1	; 0x01
	can_buffer_rx[2] = 0x00;
     dea:	12 82       	std	Z+2, r1	; 0x02
	can_buffer_rx[3] = 0x00;
     dec:	13 82       	std	Z+3, r1	; 0x03
	can_buffer_rx[4] = 0x00;
     dee:	14 82       	std	Z+4, r1	; 0x04
	can_buffer_rx[5] = 0x00;
     df0:	15 82       	std	Z+5, r1	; 0x05
	can_buffer_rx[6] = 0x00;
     df2:	16 82       	std	Z+6, r1	; 0x06
	can_buffer_rx[7] = 0x00;
     df4:	17 82       	std	Z+7, r1	; 0x07
	rx_rtr.id.std = CAN_ID+1;
	rx_rtr.cmd = CMD_RX_REMOTE_MASKED;
	*/
	
	// RX Setup
	rx_msg_one.pt_data = &can_buffer_rxx[0];
     df6:	a0 ea       	ldi	r26, 0xA0	; 160
     df8:	b2 e0       	ldi	r27, 0x02	; 2
     dfa:	8c e7       	ldi	r24, 0x7C	; 124
     dfc:	92 e0       	ldi	r25, 0x02	; 2
     dfe:	18 96       	adiw	r26, 0x08	; 8
     e00:	9c 93       	st	X, r25
     e02:	8e 93       	st	-X, r24
     e04:	17 97       	sbiw	r26, 0x07	; 7
	rx_msg_one.ctrl.ide = 0;
     e06:	1b 96       	adiw	r26, 0x0b	; 11
     e08:	1c 92       	st	X, r1
     e0a:	1b 97       	sbiw	r26, 0x0b	; 11
	rx_msg_one.dlc = CAN_BUFFER_SIZE;
     e0c:	98 e0       	ldi	r25, 0x08	; 8
     e0e:	16 96       	adiw	r26, 0x06	; 6
     e10:	9c 93       	st	X, r25
     e12:	16 97       	sbiw	r26, 0x06	; 6
	rx_msg_one.id.std = CAN_ID;
     e14:	20 e8       	ldi	r18, 0x80	; 128
     e16:	30 e0       	ldi	r19, 0x00	; 0
     e18:	13 96       	adiw	r26, 0x03	; 3
     e1a:	3c 93       	st	X, r19
     e1c:	2e 93       	st	-X, r18
     e1e:	12 97       	sbiw	r26, 0x02	; 2
	rx_msg_one.cmd = CMD_RX_MASKED;	
     e20:	87 e0       	ldi	r24, 0x07	; 7
     e22:	11 96       	adiw	r26, 0x01	; 1
     e24:	8c 93       	st	X, r24
			
	rx_msg_two.pt_data = &can_buffer_rx[0];
     e26:	ac ea       	ldi	r26, 0xAC	; 172
     e28:	b2 e0       	ldi	r27, 0x02	; 2
     e2a:	18 96       	adiw	r26, 0x08	; 8
     e2c:	fc 93       	st	X, r31
     e2e:	ee 93       	st	-X, r30
     e30:	17 97       	sbiw	r26, 0x07	; 7
	rx_msg_two.ctrl.ide = 0;
     e32:	1b 96       	adiw	r26, 0x0b	; 11
     e34:	1c 92       	st	X, r1
     e36:	1b 97       	sbiw	r26, 0x0b	; 11
	rx_msg_two.dlc = CAN_BUFFER_SIZE;
     e38:	16 96       	adiw	r26, 0x06	; 6
     e3a:	9c 93       	st	X, r25
     e3c:	16 97       	sbiw	r26, 0x06	; 6
	rx_msg_two.id.std = CAN_ID;
     e3e:	13 96       	adiw	r26, 0x03	; 3
     e40:	3c 93       	st	X, r19
     e42:	2e 93       	st	-X, r18
     e44:	12 97       	sbiw	r26, 0x02	; 2
	rx_msg_two.cmd = CMD_RX_MASKED;
     e46:	11 96       	adiw	r26, 0x01	; 1
     e48:	8c 93       	st	X, r24
	
	char temp_buff [8];
	char temp_two [30];
	char buffer[128];
	int i = 0;
     e4a:	c0 e0       	ldi	r28, 0x00	; 0
     e4c:	d0 e0       	ldi	r29, 0x00	; 0
	
	
	for(;;) {
		curr = uart_getc(NULL);
		if(i < 8){
			printf("Char to be sent: ");
     e4e:	0f 2e       	mov	r0, r31
     e50:	fc e0       	ldi	r31, 0x0C	; 12
     e52:	cf 2e       	mov	r12, r31
     e54:	f2 e0       	ldi	r31, 0x02	; 2
     e56:	df 2e       	mov	r13, r31
     e58:	f0 2d       	mov	r31, r0
			printf("%c\n", curr);
     e5a:	0f 2e       	mov	r0, r31
     e5c:	fe e1       	ldi	r31, 0x1E	; 30
     e5e:	ef 2e       	mov	r14, r31
     e60:	f2 e0       	ldi	r31, 0x02	; 2
     e62:	ff 2e       	mov	r15, r31
	int tx_count = 0;
	int rx_count = 0;
	
	
	for(;;) {
		curr = uart_getc(NULL);
     e64:	f0 2d       	mov	r31, r0
     e66:	80 e0       	ldi	r24, 0x00	; 0
     e68:	90 e0       	ldi	r25, 0x00	; 0
     e6a:	70 d1       	rcall	.+736    	; 0x114c <uart_getc>
     e6c:	18 2f       	mov	r17, r24
		if(i < 8){
     e6e:	c8 30       	cpi	r28, 0x08	; 8
     e70:	d1 05       	cpc	r29, r1
			printf("Char to be sent: ");
     e72:	7c f4       	brge	.+30     	; 0xe92 <main+0xd0>
     e74:	df 92       	push	r13
     e76:	cf 92       	push	r12
			printf("%c\n", curr);
     e78:	02 d2       	rcall	.+1028   	; 0x127e <printf>
     e7a:	1f 92       	push	r1
     e7c:	1f 93       	push	r17
     e7e:	ff 92       	push	r15
     e80:	ef 92       	push	r14
     e82:	fd d1       	rcall	.+1018   	; 0x127e <printf>
     e84:	0f 90       	pop	r0
     e86:	0f 90       	pop	r0
     e88:	0f 90       	pop	r0
     e8a:	0f 90       	pop	r0
     e8c:	0f 90       	pop	r0
     e8e:	0f 90       	pop	r0
		}
		else if (i == 8) {
     e90:	30 c0       	rjmp	.+96     	; 0xef2 <main+0x130>
     e92:	c8 30       	cpi	r28, 0x08	; 8
     e94:	d1 05       	cpc	r29, r1
			printf("\n 8 Entered. \n");
     e96:	31 f4       	brne	.+12     	; 0xea4 <main+0xe2>
     e98:	82 e2       	ldi	r24, 0x22	; 34
     e9a:	92 e0       	ldi	r25, 0x02	; 2
     e9c:	03 d2       	rcall	.+1030   	; 0x12a4 <puts>
			i++;
     e9e:	c9 e0       	ldi	r28, 0x09	; 9
     ea0:	d0 e0       	ldi	r29, 0x00	; 0
		}
		else if (i > 8){
     ea2:	27 c0       	rjmp	.+78     	; 0xef2 <main+0x130>
     ea4:	c9 30       	cpi	r28, 0x09	; 9
     ea6:	d1 05       	cpc	r29, r1
			i++;
			printf("Now sending over CAN bus. \n");
     ea8:	24 f1       	brlt	.+72     	; 0xef2 <main+0x130>
     eaa:	80 e3       	ldi	r24, 0x30	; 48
     eac:	92 e0       	ldi	r25, 0x02	; 2
     eae:	fa d1       	rcall	.+1012   	; 0x12a4 <puts>
	char buffer[128];
	int i = 0;
	uint8_t curr;	
	
	int tx_count = 0;
	int rx_count = 0;
     eb0:	00 e0       	ldi	r16, 0x00	; 0
     eb2:	10 e0       	ldi	r17, 0x00	; 0
		/************************************************************************/
		
		// TX Setup
		printf("Started... \n");	
		// point message object to first element of data buffer
		tx_msg_one.pt_data = &can_buffer_tx[0];
     eb4:	c4 e9       	ldi	r28, 0x94	; 148
     eb6:	d2 e0       	ldi	r29, 0x02	; 2
     eb8:	0f 2e       	mov	r0, r31
     eba:	f4 e7       	ldi	r31, 0x74	; 116
     ebc:	af 2e       	mov	r10, r31
     ebe:	f2 e0       	ldi	r31, 0x02	; 2
     ec0:	bf 2e       	mov	r11, r31
     ec2:	f0 2d       	mov	r31, r0
		// standard CAN frame type (2.0A)
		tx_msg_one.ctrl.ide = 0;
		// Number of bytes being sent (8 max)
		tx_msg_one.dlc = CAN_BUFFER_SIZE;
     ec4:	68 94       	set
     ec6:	66 24       	eor	r6, r6
     ec8:	63 f8       	bld	r6, 3
		// populate ID field with ID Tag
		tx_msg_one.id.std = CAN_ID;
     eca:	68 94       	set
     ecc:	cc 24       	eor	r12, r12
     ece:	c7 f8       	bld	r12, 7
     ed0:	d1 2c       	mov	r13, r1
		// assign this as a "Standard (2.0A) Reply" message object
		tx_msg_one.cmd = CMD_TX_DATA;
     ed2:	68 94       	set
     ed4:	77 24       	eor	r7, r7
     ed6:	71 f8       	bld	r7, 1

		// wait for a transmit request to come in, and send a response
		while(can_get_status(&tx_msg_one) == CAN_STATUS_NOT_COMPLETED);
		rx_count++;
		
		printf("Sent: ");
     ed8:	0f 2e       	mov	r0, r31
     eda:	f9 e6       	ldi	r31, 0x69	; 105
     edc:	ef 2e       	mov	r14, r31
     ede:	f2 e0       	ldi	r31, 0x02	; 2
     ee0:	ff 2e       	mov	r15, r31
     ee2:	f0 2d       	mov	r31, r0
		printf("%d\n",rx_count);
     ee4:	0f 2e       	mov	r0, r31
     ee6:	f0 e7       	ldi	r31, 0x70	; 112
     ee8:	8f 2e       	mov	r8, r31
     eea:	f2 e0       	ldi	r31, 0x02	; 2
     eec:	9f 2e       	mov	r9, r31
     eee:	f0 2d       	mov	r31, r0
			i++;
		}
		else if (i > 8){
			i++;
			printf("Now sending over CAN bus. \n");
			break;
     ef0:	11 c0       	rjmp	.+34     	; 0xf14 <main+0x152>
		}
		
		if(curr != NULL){
     ef2:	11 23       	and	r17, r17
     ef4:	29 f0       	breq	.+10     	; 0xf00 <main+0x13e>
			can_buffer_tx[i] = curr;
     ef6:	fe 01       	movw	r30, r28
     ef8:	ec 58       	subi	r30, 0x8C	; 140
     efa:	fd 4f       	sbci	r31, 0xFD	; 253
     efc:	10 83       	st	Z, r17
			i = i+1;
     efe:	21 96       	adiw	r28, 0x01	; 1
	#else
		//round up by default
		__ticks_dc = (uint32_t)(ceil(fabs(__tmp)));
	#endif

	__builtin_avr_delay_cycles(__ticks_dc);
     f00:	2f ef       	ldi	r18, 0xFF	; 255
     f02:	8f e4       	ldi	r24, 0x4F	; 79
     f04:	93 ec       	ldi	r25, 0xC3	; 195
     f06:	21 50       	subi	r18, 0x01	; 1
     f08:	80 40       	sbci	r24, 0x00	; 0
     f0a:	90 40       	sbci	r25, 0x00	; 0
     f0c:	e1 f7       	brne	.-8      	; 0xf06 <main+0x144>
     f0e:	00 c0       	rjmp	.+0      	; 0xf10 <main+0x14e>
     f10:	00 00       	nop
		/************************************************************************/
		/*                         CANBUS SEND SECTION                          */
		/************************************************************************/
		
		// TX Setup
		printf("Started... \n");	
     f12:	a9 cf       	rjmp	.-174    	; 0xe66 <main+0xa4>
     f14:	8b e4       	ldi	r24, 0x4B	; 75
     f16:	92 e0       	ldi	r25, 0x02	; 2
		// point message object to first element of data buffer
		tx_msg_one.pt_data = &can_buffer_tx[0];
		// standard CAN frame type (2.0A)
		tx_msg_one.ctrl.ide = 0;
		// Number of bytes being sent (8 max)
		tx_msg_one.dlc = CAN_BUFFER_SIZE;
     f18:	c5 d1       	rcall	.+906    	; 0x12a4 <puts>
		// populate ID field with ID Tag
		tx_msg_one.id.std = CAN_ID;
     f1a:	b8 86       	std	Y+8, r11	; 0x08
		// assign this as a "Standard (2.0A) Reply" message object
		tx_msg_one.cmd = CMD_TX_DATA;
		
		printf("About to send... \n");
     f1c:	af 82       	std	Y+7, r10	; 0x07
     f1e:	1b 86       	std	Y+11, r1	; 0x0b
     f20:	6e 82       	std	Y+6, r6	; 0x06
     f22:	db 82       	std	Y+3, r13	; 0x03
		
		// wait for MOb to configure
		while(can_cmd(&tx_msg_one) != CAN_CMD_ACCEPTED);
     f24:	ca 82       	std	Y+2, r12	; 0x02
     f26:	79 82       	std	Y+1, r7	; 0x01
     f28:	87 e5       	ldi	r24, 0x57	; 87
     f2a:	92 e0       	ldi	r25, 0x02	; 2

		// wait for a transmit request to come in, and send a response
		while(can_get_status(&tx_msg_one) == CAN_STATUS_NOT_COMPLETED);
     f2c:	bb d1       	rcall	.+886    	; 0x12a4 <puts>
     f2e:	ce 01       	movw	r24, r28
     f30:	4c d9       	rcall	.-3432   	; 0x1ca <can_cmd>
     f32:	81 11       	cpse	r24, r1
		rx_count++;
     f34:	fc cf       	rjmp	.-8      	; 0xf2e <main+0x16c>
     f36:	ce 01       	movw	r24, r28
		
		printf("Sent: ");
     f38:	a6 de       	rcall	.-692    	; 0xc86 <can_get_status>
     f3a:	81 30       	cpi	r24, 0x01	; 1
     f3c:	e1 f3       	breq	.-8      	; 0xf36 <main+0x174>
     f3e:	0f 5f       	subi	r16, 0xFF	; 255
		printf("%d\n",rx_count);
     f40:	1f 4f       	sbci	r17, 0xFF	; 255
     f42:	ff 92       	push	r15
     f44:	ef 92       	push	r14
     f46:	9b d1       	rcall	.+822    	; 0x127e <printf>
     f48:	1f 93       	push	r17
     f4a:	0f 93       	push	r16
     f4c:	9f 92       	push	r9
     f4e:	8f 92       	push	r8
     f50:	96 d1       	rcall	.+812    	; 0x127e <printf>
     f52:	2f ef       	ldi	r18, 0xFF	; 255
     f54:	83 e2       	ldi	r24, 0x23	; 35
     f56:	94 ef       	ldi	r25, 0xF4	; 244
     f58:	21 50       	subi	r18, 0x01	; 1
     f5a:	80 40       	sbci	r24, 0x00	; 0
     f5c:	90 40       	sbci	r25, 0x00	; 0
     f5e:	e1 f7       	brne	.-8      	; 0xf58 <main+0x196>
     f60:	00 c0       	rjmp	.+0      	; 0xf62 <main+0x1a0>
     f62:	00 00       	nop
     f64:	0f 90       	pop	r0
     f66:	0f 90       	pop	r0
     f68:	0f 90       	pop	r0
     f6a:	0f 90       	pop	r0
     f6c:	0f 90       	pop	r0
     f6e:	0f 90       	pop	r0
     f70:	d1 cf       	rjmp	.-94     	; 0xf14 <main+0x152>

00000f72 <buffer_write>:
	str[i] = '\0';
}

bool buffer_full(struct ringbuffer* buffer) {
	return ((buffer->head == buffer->tail) && !(buffer->empty));
}
     f72:	fc 01       	movw	r30, r24
     f74:	ee 57       	subi	r30, 0x7E	; 126
     f76:	ff 4f       	sbci	r31, 0xFF	; 255
     f78:	20 81       	ld	r18, Z
     f7a:	22 23       	and	r18, r18
     f7c:	11 f0       	breq	.+4      	; 0xf82 <buffer_write+0x10>
     f7e:	10 82       	st	Z, r1
     f80:	16 c0       	rjmp	.+44     	; 0xfae <buffer_write+0x3c>
     f82:	fc 01       	movw	r30, r24
     f84:	e0 58       	subi	r30, 0x80	; 128
     f86:	ff 4f       	sbci	r31, 0xFF	; 255
     f88:	20 81       	ld	r18, Z
     f8a:	31 96       	adiw	r30, 0x01	; 1
     f8c:	30 81       	ld	r19, Z
     f8e:	23 13       	cpse	r18, r19
     f90:	0e c0       	rjmp	.+28     	; 0xfae <buffer_write+0x3c>
     f92:	30 e0       	ldi	r19, 0x00	; 0
     f94:	2f 5f       	subi	r18, 0xFF	; 255
     f96:	3f 4f       	sbci	r19, 0xFF	; 255
     f98:	2f 77       	andi	r18, 0x7F	; 127
     f9a:	30 78       	andi	r19, 0x80	; 128
     f9c:	33 23       	and	r19, r19
     f9e:	34 f4       	brge	.+12     	; 0xfac <buffer_write+0x3a>
     fa0:	21 50       	subi	r18, 0x01	; 1
     fa2:	31 09       	sbc	r19, r1
     fa4:	20 68       	ori	r18, 0x80	; 128
     fa6:	3f 6f       	ori	r19, 0xFF	; 255
     fa8:	2f 5f       	subi	r18, 0xFF	; 255
     faa:	3f 4f       	sbci	r19, 0xFF	; 255
     fac:	20 83       	st	Z, r18
     fae:	fc 01       	movw	r30, r24
     fb0:	e0 58       	subi	r30, 0x80	; 128
     fb2:	ff 4f       	sbci	r31, 0xFF	; 255
     fb4:	20 81       	ld	r18, Z
     fb6:	30 e0       	ldi	r19, 0x00	; 0
     fb8:	dc 01       	movw	r26, r24
     fba:	a2 0f       	add	r26, r18
     fbc:	b3 1f       	adc	r27, r19
     fbe:	6c 93       	st	X, r22
     fc0:	c9 01       	movw	r24, r18
     fc2:	01 96       	adiw	r24, 0x01	; 1
     fc4:	8f 77       	andi	r24, 0x7F	; 127
     fc6:	90 78       	andi	r25, 0x80	; 128
     fc8:	99 23       	and	r25, r25
     fca:	24 f4       	brge	.+8      	; 0xfd4 <buffer_write+0x62>
     fcc:	01 97       	sbiw	r24, 0x01	; 1
     fce:	80 68       	ori	r24, 0x80	; 128
     fd0:	9f 6f       	ori	r25, 0xFF	; 255
     fd2:	01 96       	adiw	r24, 0x01	; 1
     fd4:	80 83       	st	Z, r24
     fd6:	08 95       	ret

00000fd8 <buffer_read>:
     fd8:	fc 01       	movw	r30, r24
     fda:	ee 57       	subi	r30, 0x7E	; 126
     fdc:	ff 4f       	sbci	r31, 0xFF	; 255
     fde:	20 81       	ld	r18, Z
     fe0:	21 11       	cpse	r18, r1
     fe2:	22 c0       	rjmp	.+68     	; 0x1028 <buffer_read+0x50>
     fe4:	31 97       	sbiw	r30, 0x01	; 1
     fe6:	20 81       	ld	r18, Z
     fe8:	30 e0       	ldi	r19, 0x00	; 0
     fea:	fc 01       	movw	r30, r24
     fec:	e2 0f       	add	r30, r18
     fee:	f3 1f       	adc	r31, r19
     ff0:	40 81       	ld	r20, Z
     ff2:	2f 5f       	subi	r18, 0xFF	; 255
     ff4:	3f 4f       	sbci	r19, 0xFF	; 255
     ff6:	2f 77       	andi	r18, 0x7F	; 127
     ff8:	30 78       	andi	r19, 0x80	; 128
     ffa:	33 23       	and	r19, r19
     ffc:	34 f4       	brge	.+12     	; 0x100a <buffer_read+0x32>
     ffe:	21 50       	subi	r18, 0x01	; 1
    1000:	31 09       	sbc	r19, r1
    1002:	20 68       	ori	r18, 0x80	; 128
    1004:	3f 6f       	ori	r19, 0xFF	; 255
    1006:	2f 5f       	subi	r18, 0xFF	; 255
    1008:	3f 4f       	sbci	r19, 0xFF	; 255
    100a:	fc 01       	movw	r30, r24
    100c:	ef 57       	subi	r30, 0x7F	; 127
    100e:	ff 4f       	sbci	r31, 0xFF	; 255
    1010:	20 83       	st	Z, r18
    1012:	dc 01       	movw	r26, r24
    1014:	ae 57       	subi	r26, 0x7E	; 126
    1016:	bf 4f       	sbci	r27, 0xFF	; 255
    1018:	31 97       	sbiw	r30, 0x01	; 1
    101a:	81 e0       	ldi	r24, 0x01	; 1
    101c:	90 81       	ld	r25, Z
    101e:	92 13       	cpse	r25, r18
    1020:	80 e0       	ldi	r24, 0x00	; 0
    1022:	8c 93       	st	X, r24
    1024:	84 2f       	mov	r24, r20
    1026:	08 95       	ret
    1028:	80 e0       	ldi	r24, 0x00	; 0
    102a:	08 95       	ret

0000102c <buffer_empty>:


bool buffer_empty(struct ringbuffer* buffer) {
	return buffer->empty;
    102c:	8e 57       	subi	r24, 0x7E	; 126
    102e:	9f 4f       	sbci	r25, 0xFF	; 255
}
    1030:	fc 01       	movw	r30, r24
    1032:	80 81       	ld	r24, Z
    1034:	08 95       	ret

00001036 <__vector_20>:

volatile struct ringbuffer tx_buffer = {{0}, 0, 0, true};
volatile struct ringbuffer rx_buffer = {{0}, 0, 0, true};

//AVR UART Interrupt (Receive and Transmit)
ISR(LIN_TC_vect) {
    1036:	1f 92       	push	r1
    1038:	0f 92       	push	r0
    103a:	0f b6       	in	r0, 0x3f	; 63
    103c:	0f 92       	push	r0
    103e:	11 24       	eor	r1, r1
    1040:	2f 93       	push	r18
    1042:	3f 93       	push	r19
    1044:	4f 93       	push	r20
    1046:	5f 93       	push	r21
    1048:	6f 93       	push	r22
    104a:	7f 93       	push	r23
    104c:	8f 93       	push	r24
    104e:	9f 93       	push	r25
    1050:	af 93       	push	r26
    1052:	bf 93       	push	r27
    1054:	ef 93       	push	r30
    1056:	ff 93       	push	r31
	
	// A byte has been received by the UART
	if(LINSIR & (1 << LRXOK)) {
    1058:	80 91 c9 00 	lds	r24, 0x00C9	; 0x8000c9 <__TEXT_REGION_LENGTH__+0x7e00c9>
    105c:	80 ff       	sbrs	r24, 0
    105e:	0a c0       	rjmp	.+20     	; 0x1074 <__vector_20+0x3e>
		//clear LRXOK
		LINSIR &= ~(1 << LRXOK);
    1060:	e9 ec       	ldi	r30, 0xC9	; 201
    1062:	f0 e0       	ldi	r31, 0x00	; 0
    1064:	80 81       	ld	r24, Z
    1066:	8e 7f       	andi	r24, 0xFE	; 254
    1068:	80 83       	st	Z, r24
		
		//write buffer
		uint8_t recv = LINDAT;
    106a:	60 91 d2 00 	lds	r22, 0x00D2	; 0x8000d2 <__TEXT_REGION_LENGTH__+0x7e00d2>
		buffer_write(&rx_buffer, recv);	
    106e:	86 e0       	ldi	r24, 0x06	; 6
    1070:	91 e0       	ldi	r25, 0x01	; 1
    1072:	7f df       	rcall	.-258    	; 0xf72 <buffer_write>
	}
	
	// A byte was successfully transmitted by the UART
	if(LINSIR & (1 << LTXOK)) {
    1074:	80 91 c9 00 	lds	r24, 0x00C9	; 0x8000c9 <__TEXT_REGION_LENGTH__+0x7e00c9>
    1078:	81 ff       	sbrs	r24, 1
    107a:	14 c0       	rjmp	.+40     	; 0x10a4 <__vector_20+0x6e>
		//clear LTXOK
		LINSIR &= ~(1 << LTXOK);
    107c:	e9 ec       	ldi	r30, 0xC9	; 201
    107e:	f0 e0       	ldi	r31, 0x00	; 0
    1080:	80 81       	ld	r24, Z
    1082:	8d 7f       	andi	r24, 0xFD	; 253
    1084:	80 83       	st	Z, r24
		uint8_t data = buffer_read(&tx_buffer); 
    1086:	89 e8       	ldi	r24, 0x89	; 137
    1088:	91 e0       	ldi	r25, 0x01	; 1
    108a:	a6 df       	rcall	.-180    	; 0xfd8 <buffer_read>
		LINDAT = data;
    108c:	80 93 d2 00 	sts	0x00D2, r24	; 0x8000d2 <__TEXT_REGION_LENGTH__+0x7e00d2>
		
		if(buffer_empty(&tx_buffer)) {
    1090:	89 e8       	ldi	r24, 0x89	; 137
    1092:	91 e0       	ldi	r25, 0x01	; 1
    1094:	cb df       	rcall	.-106    	; 0x102c <buffer_empty>
    1096:	88 23       	and	r24, r24
			LINENIR  &= ~(1 << LENTXOK);
    1098:	29 f0       	breq	.+10     	; 0x10a4 <__vector_20+0x6e>
    109a:	ea ec       	ldi	r30, 0xCA	; 202
    109c:	f0 e0       	ldi	r31, 0x00	; 0
    109e:	80 81       	ld	r24, Z
    10a0:	8d 7f       	andi	r24, 0xFD	; 253
		}
	}
}
    10a2:	80 83       	st	Z, r24
    10a4:	ff 91       	pop	r31
    10a6:	ef 91       	pop	r30
    10a8:	bf 91       	pop	r27
    10aa:	af 91       	pop	r26
    10ac:	9f 91       	pop	r25
    10ae:	8f 91       	pop	r24
    10b0:	7f 91       	pop	r23
    10b2:	6f 91       	pop	r22
    10b4:	5f 91       	pop	r21
    10b6:	4f 91       	pop	r20
    10b8:	3f 91       	pop	r19
    10ba:	2f 91       	pop	r18
    10bc:	0f 90       	pop	r0
    10be:	0f be       	out	0x3f, r0	; 63
    10c0:	0f 90       	pop	r0
    10c2:	1f 90       	pop	r1
    10c4:	18 95       	reti

000010c6 <uart_init>:


void uart_init(uint16_t baud){
    10c6:	cf 93       	push	r28
    10c8:	df 93       	push	r29
	//Reset LIN/UART hardware
	LINCR = (1 << LSWRES);
    10ca:	c8 ec       	ldi	r28, 0xC8	; 200
    10cc:	d0 e0       	ldi	r29, 0x00	; 0
    10ce:	20 e8       	ldi	r18, 0x80	; 128
    10d0:	28 83       	st	Y, r18
	
	//Calculate, and set UART baud rate
	LINBRRH = (((F_CPU / baud) / 16) - 1) >> 8;
    10d2:	9c 01       	movw	r18, r24
    10d4:	40 e0       	ldi	r20, 0x00	; 0
    10d6:	50 e0       	ldi	r21, 0x00	; 0
    10d8:	60 e4       	ldi	r22, 0x40	; 64
    10da:	72 e4       	ldi	r23, 0x42	; 66
    10dc:	8f e0       	ldi	r24, 0x0F	; 15
    10de:	90 e0       	ldi	r25, 0x00	; 0
    10e0:	40 d0       	rcall	.+128    	; 0x1162 <__divmodsi4>
    10e2:	da 01       	movw	r26, r20
    10e4:	c9 01       	movw	r24, r18
    10e6:	01 97       	sbiw	r24, 0x01	; 1
    10e8:	a1 09       	sbc	r26, r1
    10ea:	b1 09       	sbc	r27, r1
    10ec:	89 2f       	mov	r24, r25
    10ee:	9a 2f       	mov	r25, r26
    10f0:	ab 2f       	mov	r26, r27
    10f2:	bb 27       	eor	r27, r27
    10f4:	a7 fd       	sbrc	r26, 7
    10f6:	ba 95       	dec	r27
    10f8:	80 93 ce 00 	sts	0x00CE, r24	; 0x8000ce <__TEXT_REGION_LENGTH__+0x7e00ce>
	LINBRRL = (((F_CPU / baud) / 16) - 1);
    10fc:	21 50       	subi	r18, 0x01	; 1
    10fe:	20 93 cd 00 	sts	0x00CD, r18	; 0x8000cd <__TEXT_REGION_LENGTH__+0x7e00cd>
	
	//Bit sampling rate/re-sync
	LINBTR = (1 << LDISR) | (16 << LBT0);
    1102:	80 e9       	ldi	r24, 0x90	; 144
    1104:	80 93 cc 00 	sts	0x00CC, r24	; 0x8000cc <__TEXT_REGION_LENGTH__+0x7e00cc>

	//RX interrupt
	LINENIR = (1 << LENRXOK);
    1108:	81 e0       	ldi	r24, 0x01	; 1
    110a:	80 93 ca 00 	sts	0x00CA, r24	; 0x8000ca <__TEXT_REGION_LENGTH__+0x7e00ca>

	//Enable UART RX & TX
	LINCR = (1 << LENA) | (1 << LCMD2) | (1 << LCMD1) | (1 << LCMD0);
    110e:	8f e0       	ldi	r24, 0x0F	; 15
    1110:	88 83       	st	Y, r24

	sei();
    1112:	78 94       	sei
}
    1114:	df 91       	pop	r29
    1116:	cf 91       	pop	r28
    1118:	08 95       	ret

0000111a <uart_putc>:
			
int uart_putc(char data, FILE* file) {
    111a:	cf 93       	push	r28
    111c:	c8 2f       	mov	r28, r24
	cli();
    111e:	f8 94       	cli
	// the buffer was empty, enable TX interrupt
	if(!(LINENIR & (1 << LENTXOK))) {
    1120:	80 91 ca 00 	lds	r24, 0x00CA	; 0x8000ca <__TEXT_REGION_LENGTH__+0x7e00ca>
    1124:	81 fd       	sbrc	r24, 1
    1126:	08 c0       	rjmp	.+16     	; 0x1138 <uart_putc+0x1e>
		LINENIR |= (1 << LENTXOK);
    1128:	ea ec       	ldi	r30, 0xCA	; 202
    112a:	f0 e0       	ldi	r31, 0x00	; 0
    112c:	80 81       	ld	r24, Z
    112e:	82 60       	ori	r24, 0x02	; 2
    1130:	80 83       	st	Z, r24
		LINDAT = data;
    1132:	c0 93 d2 00 	sts	0x00D2, r28	; 0x8000d2 <__TEXT_REGION_LENGTH__+0x7e00d2>
    1136:	04 c0       	rjmp	.+8      	; 0x1140 <uart_putc+0x26>
	}
	else {
		// add data to buffer
		buffer_write(&tx_buffer, data);
    1138:	6c 2f       	mov	r22, r28
    113a:	89 e8       	ldi	r24, 0x89	; 137
    113c:	91 e0       	ldi	r25, 0x01	; 1
    113e:	19 df       	rcall	.-462    	; 0xf72 <buffer_write>
	}
	sei();
    1140:	78 94       	sei
	return data;
}
    1142:	8c 2f       	mov	r24, r28
    1144:	cc 0f       	add	r28, r28
    1146:	99 0b       	sbc	r25, r25
    1148:	cf 91       	pop	r28
    114a:	08 95       	ret

0000114c <uart_getc>:

uint8_t uart_getc(FILE* file) {
	cli();
    114c:	f8 94       	cli
	
	//while (buffer_empty(&rx_buffer));
	int data_read = buffer_read(&rx_buffer);
    114e:	86 e0       	ldi	r24, 0x06	; 6
    1150:	91 e0       	ldi	r25, 0x01	; 1
    1152:	42 df       	rcall	.-380    	; 0xfd8 <buffer_read>
    1154:	90 e0       	ldi	r25, 0x00	; 0
	if(data_read == '\r') data_read = '\n';
    1156:	8d 30       	cpi	r24, 0x0D	; 13
    1158:	91 05       	cpc	r25, r1
    115a:	11 f4       	brne	.+4      	; 0x1160 <uart_getc+0x14>
    115c:	8a e0       	ldi	r24, 0x0A	; 10
    115e:	90 e0       	ldi	r25, 0x00	; 0
		
	return data_read;
	sei();
    1160:	08 95       	ret

00001162 <__divmodsi4>:
    1162:	05 2e       	mov	r0, r21
    1164:	97 fb       	bst	r25, 7
    1166:	16 f4       	brtc	.+4      	; 0x116c <__divmodsi4+0xa>
    1168:	00 94       	com	r0
    116a:	0f d0       	rcall	.+30     	; 0x118a <__negsi2>
    116c:	57 fd       	sbrc	r21, 7
    116e:	05 d0       	rcall	.+10     	; 0x117a <__divmodsi4_neg2>
    1170:	1a d0       	rcall	.+52     	; 0x11a6 <__udivmodsi4>
    1172:	07 fc       	sbrc	r0, 7
    1174:	02 d0       	rcall	.+4      	; 0x117a <__divmodsi4_neg2>
    1176:	46 f4       	brtc	.+16     	; 0x1188 <__divmodsi4_exit>
    1178:	08 c0       	rjmp	.+16     	; 0x118a <__negsi2>

0000117a <__divmodsi4_neg2>:
    117a:	50 95       	com	r21
    117c:	40 95       	com	r20
    117e:	30 95       	com	r19
    1180:	21 95       	neg	r18
    1182:	3f 4f       	sbci	r19, 0xFF	; 255
    1184:	4f 4f       	sbci	r20, 0xFF	; 255
    1186:	5f 4f       	sbci	r21, 0xFF	; 255

00001188 <__divmodsi4_exit>:
    1188:	08 95       	ret

0000118a <__negsi2>:
    118a:	90 95       	com	r25
    118c:	80 95       	com	r24
    118e:	70 95       	com	r23
    1190:	61 95       	neg	r22
    1192:	7f 4f       	sbci	r23, 0xFF	; 255
    1194:	8f 4f       	sbci	r24, 0xFF	; 255
    1196:	9f 4f       	sbci	r25, 0xFF	; 255
    1198:	08 95       	ret

0000119a <__tablejump2__>:
    119a:	ee 0f       	add	r30, r30
    119c:	ff 1f       	adc	r31, r31
    119e:	05 90       	lpm	r0, Z+
    11a0:	f4 91       	lpm	r31, Z
    11a2:	e0 2d       	mov	r30, r0
    11a4:	09 94       	ijmp

000011a6 <__udivmodsi4>:
    11a6:	a1 e2       	ldi	r26, 0x21	; 33
    11a8:	1a 2e       	mov	r1, r26
    11aa:	aa 1b       	sub	r26, r26
    11ac:	bb 1b       	sub	r27, r27
    11ae:	fd 01       	movw	r30, r26
    11b0:	0d c0       	rjmp	.+26     	; 0x11cc <__udivmodsi4_ep>

000011b2 <__udivmodsi4_loop>:
    11b2:	aa 1f       	adc	r26, r26
    11b4:	bb 1f       	adc	r27, r27
    11b6:	ee 1f       	adc	r30, r30
    11b8:	ff 1f       	adc	r31, r31
    11ba:	a2 17       	cp	r26, r18
    11bc:	b3 07       	cpc	r27, r19
    11be:	e4 07       	cpc	r30, r20
    11c0:	f5 07       	cpc	r31, r21
    11c2:	20 f0       	brcs	.+8      	; 0x11cc <__udivmodsi4_ep>
    11c4:	a2 1b       	sub	r26, r18
    11c6:	b3 0b       	sbc	r27, r19
    11c8:	e4 0b       	sbc	r30, r20
    11ca:	f5 0b       	sbc	r31, r21

000011cc <__udivmodsi4_ep>:
    11cc:	66 1f       	adc	r22, r22
    11ce:	77 1f       	adc	r23, r23
    11d0:	88 1f       	adc	r24, r24
    11d2:	99 1f       	adc	r25, r25
    11d4:	1a 94       	dec	r1
    11d6:	69 f7       	brne	.-38     	; 0x11b2 <__udivmodsi4_loop>
    11d8:	60 95       	com	r22
    11da:	70 95       	com	r23
    11dc:	80 95       	com	r24
    11de:	90 95       	com	r25
    11e0:	9b 01       	movw	r18, r22
    11e2:	ac 01       	movw	r20, r24
    11e4:	bd 01       	movw	r22, r26
    11e6:	cf 01       	movw	r24, r30
    11e8:	08 95       	ret

000011ea <fdevopen>:
    11ea:	0f 93       	push	r16
    11ec:	1f 93       	push	r17
    11ee:	cf 93       	push	r28
    11f0:	df 93       	push	r29
    11f2:	00 97       	sbiw	r24, 0x00	; 0
    11f4:	31 f4       	brne	.+12     	; 0x1202 <fdevopen+0x18>
    11f6:	61 15       	cp	r22, r1
    11f8:	71 05       	cpc	r23, r1
    11fa:	19 f4       	brne	.+6      	; 0x1202 <fdevopen+0x18>
    11fc:	80 e0       	ldi	r24, 0x00	; 0
    11fe:	90 e0       	ldi	r25, 0x00	; 0
    1200:	39 c0       	rjmp	.+114    	; 0x1274 <fdevopen+0x8a>
    1202:	8b 01       	movw	r16, r22
    1204:	ec 01       	movw	r28, r24
    1206:	6e e0       	ldi	r22, 0x0E	; 14
    1208:	70 e0       	ldi	r23, 0x00	; 0
    120a:	81 e0       	ldi	r24, 0x01	; 1
    120c:	90 e0       	ldi	r25, 0x00	; 0
    120e:	4c d2       	rcall	.+1176   	; 0x16a8 <calloc>
    1210:	fc 01       	movw	r30, r24
    1212:	89 2b       	or	r24, r25
    1214:	99 f3       	breq	.-26     	; 0x11fc <fdevopen+0x12>
    1216:	80 e8       	ldi	r24, 0x80	; 128
    1218:	83 83       	std	Z+3, r24	; 0x03
    121a:	01 15       	cp	r16, r1
    121c:	11 05       	cpc	r17, r1
    121e:	71 f0       	breq	.+28     	; 0x123c <fdevopen+0x52>
    1220:	13 87       	std	Z+11, r17	; 0x0b
    1222:	02 87       	std	Z+10, r16	; 0x0a
    1224:	81 e8       	ldi	r24, 0x81	; 129
    1226:	83 83       	std	Z+3, r24	; 0x03
    1228:	80 91 c4 02 	lds	r24, 0x02C4	; 0x8002c4 <__iob>
    122c:	90 91 c5 02 	lds	r25, 0x02C5	; 0x8002c5 <__iob+0x1>
    1230:	89 2b       	or	r24, r25
    1232:	21 f4       	brne	.+8      	; 0x123c <fdevopen+0x52>
    1234:	f0 93 c5 02 	sts	0x02C5, r31	; 0x8002c5 <__iob+0x1>
    1238:	e0 93 c4 02 	sts	0x02C4, r30	; 0x8002c4 <__iob>
    123c:	20 97       	sbiw	r28, 0x00	; 0
    123e:	c9 f0       	breq	.+50     	; 0x1272 <fdevopen+0x88>
    1240:	d1 87       	std	Z+9, r29	; 0x09
    1242:	c0 87       	std	Z+8, r28	; 0x08
    1244:	83 81       	ldd	r24, Z+3	; 0x03
    1246:	82 60       	ori	r24, 0x02	; 2
    1248:	83 83       	std	Z+3, r24	; 0x03
    124a:	80 91 c6 02 	lds	r24, 0x02C6	; 0x8002c6 <__iob+0x2>
    124e:	90 91 c7 02 	lds	r25, 0x02C7	; 0x8002c7 <__iob+0x3>
    1252:	89 2b       	or	r24, r25
    1254:	71 f4       	brne	.+28     	; 0x1272 <fdevopen+0x88>
    1256:	f0 93 c7 02 	sts	0x02C7, r31	; 0x8002c7 <__iob+0x3>
    125a:	e0 93 c6 02 	sts	0x02C6, r30	; 0x8002c6 <__iob+0x2>
    125e:	80 91 c8 02 	lds	r24, 0x02C8	; 0x8002c8 <__iob+0x4>
    1262:	90 91 c9 02 	lds	r25, 0x02C9	; 0x8002c9 <__iob+0x5>
    1266:	89 2b       	or	r24, r25
    1268:	21 f4       	brne	.+8      	; 0x1272 <fdevopen+0x88>
    126a:	f0 93 c9 02 	sts	0x02C9, r31	; 0x8002c9 <__iob+0x5>
    126e:	e0 93 c8 02 	sts	0x02C8, r30	; 0x8002c8 <__iob+0x4>
    1272:	cf 01       	movw	r24, r30
    1274:	df 91       	pop	r29
    1276:	cf 91       	pop	r28
    1278:	1f 91       	pop	r17
    127a:	0f 91       	pop	r16
    127c:	08 95       	ret

0000127e <printf>:
    127e:	a0 e0       	ldi	r26, 0x00	; 0
    1280:	b0 e0       	ldi	r27, 0x00	; 0
    1282:	e4 e4       	ldi	r30, 0x44	; 68
    1284:	f9 e0       	ldi	r31, 0x09	; 9
    1286:	12 c4       	rjmp	.+2084   	; 0x1aac <__prologue_saves__+0x20>
    1288:	ae 01       	movw	r20, r28
    128a:	4b 5f       	subi	r20, 0xFB	; 251
    128c:	5f 4f       	sbci	r21, 0xFF	; 255
    128e:	fa 01       	movw	r30, r20
    1290:	61 91       	ld	r22, Z+
    1292:	71 91       	ld	r23, Z+
    1294:	af 01       	movw	r20, r30
    1296:	80 91 c6 02 	lds	r24, 0x02C6	; 0x8002c6 <__iob+0x2>
    129a:	90 91 c7 02 	lds	r25, 0x02C7	; 0x8002c7 <__iob+0x3>
    129e:	32 d0       	rcall	.+100    	; 0x1304 <vfprintf>
    12a0:	e2 e0       	ldi	r30, 0x02	; 2
    12a2:	20 c4       	rjmp	.+2112   	; 0x1ae4 <__epilogue_restores__+0x20>

000012a4 <puts>:
    12a4:	0f 93       	push	r16
    12a6:	1f 93       	push	r17
    12a8:	cf 93       	push	r28
    12aa:	df 93       	push	r29
    12ac:	e0 91 c6 02 	lds	r30, 0x02C6	; 0x8002c6 <__iob+0x2>
    12b0:	f0 91 c7 02 	lds	r31, 0x02C7	; 0x8002c7 <__iob+0x3>
    12b4:	23 81       	ldd	r18, Z+3	; 0x03
    12b6:	21 ff       	sbrs	r18, 1
    12b8:	1b c0       	rjmp	.+54     	; 0x12f0 <puts+0x4c>
    12ba:	8c 01       	movw	r16, r24
    12bc:	d0 e0       	ldi	r29, 0x00	; 0
    12be:	c0 e0       	ldi	r28, 0x00	; 0
    12c0:	f8 01       	movw	r30, r16
    12c2:	81 91       	ld	r24, Z+
    12c4:	8f 01       	movw	r16, r30
    12c6:	60 91 c6 02 	lds	r22, 0x02C6	; 0x8002c6 <__iob+0x2>
    12ca:	70 91 c7 02 	lds	r23, 0x02C7	; 0x8002c7 <__iob+0x3>
    12ce:	db 01       	movw	r26, r22
    12d0:	18 96       	adiw	r26, 0x08	; 8
    12d2:	ed 91       	ld	r30, X+
    12d4:	fc 91       	ld	r31, X
    12d6:	19 97       	sbiw	r26, 0x09	; 9
    12d8:	88 23       	and	r24, r24
    12da:	31 f0       	breq	.+12     	; 0x12e8 <puts+0x44>
    12dc:	09 95       	icall
    12de:	89 2b       	or	r24, r25
    12e0:	79 f3       	breq	.-34     	; 0x12c0 <puts+0x1c>
    12e2:	df ef       	ldi	r29, 0xFF	; 255
    12e4:	cf ef       	ldi	r28, 0xFF	; 255
    12e6:	ec cf       	rjmp	.-40     	; 0x12c0 <puts+0x1c>
    12e8:	8a e0       	ldi	r24, 0x0A	; 10
    12ea:	09 95       	icall
    12ec:	89 2b       	or	r24, r25
    12ee:	19 f0       	breq	.+6      	; 0x12f6 <puts+0x52>
    12f0:	8f ef       	ldi	r24, 0xFF	; 255
    12f2:	9f ef       	ldi	r25, 0xFF	; 255
    12f4:	02 c0       	rjmp	.+4      	; 0x12fa <puts+0x56>
    12f6:	8d 2f       	mov	r24, r29
    12f8:	9c 2f       	mov	r25, r28
    12fa:	df 91       	pop	r29
    12fc:	cf 91       	pop	r28
    12fe:	1f 91       	pop	r17
    1300:	0f 91       	pop	r16
    1302:	08 95       	ret

00001304 <vfprintf>:
    1304:	ab e0       	ldi	r26, 0x0B	; 11
    1306:	b0 e0       	ldi	r27, 0x00	; 0
    1308:	e7 e8       	ldi	r30, 0x87	; 135
    130a:	f9 e0       	ldi	r31, 0x09	; 9
    130c:	bf c3       	rjmp	.+1918   	; 0x1a8c <__prologue_saves__>
    130e:	6c 01       	movw	r12, r24
    1310:	7b 01       	movw	r14, r22
    1312:	8a 01       	movw	r16, r20
    1314:	fc 01       	movw	r30, r24
    1316:	17 82       	std	Z+7, r1	; 0x07
    1318:	16 82       	std	Z+6, r1	; 0x06
    131a:	83 81       	ldd	r24, Z+3	; 0x03
    131c:	81 ff       	sbrs	r24, 1
    131e:	bf c1       	rjmp	.+894    	; 0x169e <vfprintf+0x39a>
    1320:	ce 01       	movw	r24, r28
    1322:	01 96       	adiw	r24, 0x01	; 1
    1324:	3c 01       	movw	r6, r24
    1326:	f6 01       	movw	r30, r12
    1328:	93 81       	ldd	r25, Z+3	; 0x03
    132a:	f7 01       	movw	r30, r14
    132c:	93 fd       	sbrc	r25, 3
    132e:	85 91       	lpm	r24, Z+
    1330:	93 ff       	sbrs	r25, 3
    1332:	81 91       	ld	r24, Z+
    1334:	7f 01       	movw	r14, r30
    1336:	88 23       	and	r24, r24
    1338:	09 f4       	brne	.+2      	; 0x133c <vfprintf+0x38>
    133a:	ad c1       	rjmp	.+858    	; 0x1696 <vfprintf+0x392>
    133c:	85 32       	cpi	r24, 0x25	; 37
    133e:	39 f4       	brne	.+14     	; 0x134e <vfprintf+0x4a>
    1340:	93 fd       	sbrc	r25, 3
    1342:	85 91       	lpm	r24, Z+
    1344:	93 ff       	sbrs	r25, 3
    1346:	81 91       	ld	r24, Z+
    1348:	7f 01       	movw	r14, r30
    134a:	85 32       	cpi	r24, 0x25	; 37
    134c:	21 f4       	brne	.+8      	; 0x1356 <vfprintf+0x52>
    134e:	b6 01       	movw	r22, r12
    1350:	90 e0       	ldi	r25, 0x00	; 0
    1352:	02 d3       	rcall	.+1540   	; 0x1958 <fputc>
    1354:	e8 cf       	rjmp	.-48     	; 0x1326 <vfprintf+0x22>
    1356:	91 2c       	mov	r9, r1
    1358:	21 2c       	mov	r2, r1
    135a:	31 2c       	mov	r3, r1
    135c:	ff e1       	ldi	r31, 0x1F	; 31
    135e:	f3 15       	cp	r31, r3
    1360:	d8 f0       	brcs	.+54     	; 0x1398 <vfprintf+0x94>
    1362:	8b 32       	cpi	r24, 0x2B	; 43
    1364:	79 f0       	breq	.+30     	; 0x1384 <vfprintf+0x80>
    1366:	38 f4       	brcc	.+14     	; 0x1376 <vfprintf+0x72>
    1368:	80 32       	cpi	r24, 0x20	; 32
    136a:	79 f0       	breq	.+30     	; 0x138a <vfprintf+0x86>
    136c:	83 32       	cpi	r24, 0x23	; 35
    136e:	a1 f4       	brne	.+40     	; 0x1398 <vfprintf+0x94>
    1370:	23 2d       	mov	r18, r3
    1372:	20 61       	ori	r18, 0x10	; 16
    1374:	1d c0       	rjmp	.+58     	; 0x13b0 <vfprintf+0xac>
    1376:	8d 32       	cpi	r24, 0x2D	; 45
    1378:	61 f0       	breq	.+24     	; 0x1392 <vfprintf+0x8e>
    137a:	80 33       	cpi	r24, 0x30	; 48
    137c:	69 f4       	brne	.+26     	; 0x1398 <vfprintf+0x94>
    137e:	23 2d       	mov	r18, r3
    1380:	21 60       	ori	r18, 0x01	; 1
    1382:	16 c0       	rjmp	.+44     	; 0x13b0 <vfprintf+0xac>
    1384:	83 2d       	mov	r24, r3
    1386:	82 60       	ori	r24, 0x02	; 2
    1388:	38 2e       	mov	r3, r24
    138a:	e3 2d       	mov	r30, r3
    138c:	e4 60       	ori	r30, 0x04	; 4
    138e:	3e 2e       	mov	r3, r30
    1390:	2a c0       	rjmp	.+84     	; 0x13e6 <vfprintf+0xe2>
    1392:	f3 2d       	mov	r31, r3
    1394:	f8 60       	ori	r31, 0x08	; 8
    1396:	1d c0       	rjmp	.+58     	; 0x13d2 <vfprintf+0xce>
    1398:	37 fc       	sbrc	r3, 7
    139a:	2d c0       	rjmp	.+90     	; 0x13f6 <vfprintf+0xf2>
    139c:	20 ed       	ldi	r18, 0xD0	; 208
    139e:	28 0f       	add	r18, r24
    13a0:	2a 30       	cpi	r18, 0x0A	; 10
    13a2:	40 f0       	brcs	.+16     	; 0x13b4 <vfprintf+0xb0>
    13a4:	8e 32       	cpi	r24, 0x2E	; 46
    13a6:	b9 f4       	brne	.+46     	; 0x13d6 <vfprintf+0xd2>
    13a8:	36 fc       	sbrc	r3, 6
    13aa:	75 c1       	rjmp	.+746    	; 0x1696 <vfprintf+0x392>
    13ac:	23 2d       	mov	r18, r3
    13ae:	20 64       	ori	r18, 0x40	; 64
    13b0:	32 2e       	mov	r3, r18
    13b2:	19 c0       	rjmp	.+50     	; 0x13e6 <vfprintf+0xe2>
    13b4:	36 fe       	sbrs	r3, 6
    13b6:	06 c0       	rjmp	.+12     	; 0x13c4 <vfprintf+0xc0>
    13b8:	8a e0       	ldi	r24, 0x0A	; 10
    13ba:	98 9e       	mul	r9, r24
    13bc:	20 0d       	add	r18, r0
    13be:	11 24       	eor	r1, r1
    13c0:	92 2e       	mov	r9, r18
    13c2:	11 c0       	rjmp	.+34     	; 0x13e6 <vfprintf+0xe2>
    13c4:	ea e0       	ldi	r30, 0x0A	; 10
    13c6:	2e 9e       	mul	r2, r30
    13c8:	20 0d       	add	r18, r0
    13ca:	11 24       	eor	r1, r1
    13cc:	22 2e       	mov	r2, r18
    13ce:	f3 2d       	mov	r31, r3
    13d0:	f0 62       	ori	r31, 0x20	; 32
    13d2:	3f 2e       	mov	r3, r31
    13d4:	08 c0       	rjmp	.+16     	; 0x13e6 <vfprintf+0xe2>
    13d6:	8c 36       	cpi	r24, 0x6C	; 108
    13d8:	21 f4       	brne	.+8      	; 0x13e2 <vfprintf+0xde>
    13da:	83 2d       	mov	r24, r3
    13dc:	80 68       	ori	r24, 0x80	; 128
    13de:	38 2e       	mov	r3, r24
    13e0:	02 c0       	rjmp	.+4      	; 0x13e6 <vfprintf+0xe2>
    13e2:	88 36       	cpi	r24, 0x68	; 104
    13e4:	41 f4       	brne	.+16     	; 0x13f6 <vfprintf+0xf2>
    13e6:	f7 01       	movw	r30, r14
    13e8:	93 fd       	sbrc	r25, 3
    13ea:	85 91       	lpm	r24, Z+
    13ec:	93 ff       	sbrs	r25, 3
    13ee:	81 91       	ld	r24, Z+
    13f0:	7f 01       	movw	r14, r30
    13f2:	81 11       	cpse	r24, r1
    13f4:	b3 cf       	rjmp	.-154    	; 0x135c <vfprintf+0x58>
    13f6:	98 2f       	mov	r25, r24
    13f8:	9f 7d       	andi	r25, 0xDF	; 223
    13fa:	95 54       	subi	r25, 0x45	; 69
    13fc:	93 30       	cpi	r25, 0x03	; 3
    13fe:	28 f4       	brcc	.+10     	; 0x140a <vfprintf+0x106>
    1400:	0c 5f       	subi	r16, 0xFC	; 252
    1402:	1f 4f       	sbci	r17, 0xFF	; 255
    1404:	9f e3       	ldi	r25, 0x3F	; 63
    1406:	99 83       	std	Y+1, r25	; 0x01
    1408:	0d c0       	rjmp	.+26     	; 0x1424 <vfprintf+0x120>
    140a:	83 36       	cpi	r24, 0x63	; 99
    140c:	31 f0       	breq	.+12     	; 0x141a <vfprintf+0x116>
    140e:	83 37       	cpi	r24, 0x73	; 115
    1410:	71 f0       	breq	.+28     	; 0x142e <vfprintf+0x12a>
    1412:	83 35       	cpi	r24, 0x53	; 83
    1414:	09 f0       	breq	.+2      	; 0x1418 <vfprintf+0x114>
    1416:	55 c0       	rjmp	.+170    	; 0x14c2 <vfprintf+0x1be>
    1418:	20 c0       	rjmp	.+64     	; 0x145a <vfprintf+0x156>
    141a:	f8 01       	movw	r30, r16
    141c:	80 81       	ld	r24, Z
    141e:	89 83       	std	Y+1, r24	; 0x01
    1420:	0e 5f       	subi	r16, 0xFE	; 254
    1422:	1f 4f       	sbci	r17, 0xFF	; 255
    1424:	88 24       	eor	r8, r8
    1426:	83 94       	inc	r8
    1428:	91 2c       	mov	r9, r1
    142a:	53 01       	movw	r10, r6
    142c:	12 c0       	rjmp	.+36     	; 0x1452 <vfprintf+0x14e>
    142e:	28 01       	movw	r4, r16
    1430:	f2 e0       	ldi	r31, 0x02	; 2
    1432:	4f 0e       	add	r4, r31
    1434:	51 1c       	adc	r5, r1
    1436:	f8 01       	movw	r30, r16
    1438:	a0 80       	ld	r10, Z
    143a:	b1 80       	ldd	r11, Z+1	; 0x01
    143c:	36 fe       	sbrs	r3, 6
    143e:	03 c0       	rjmp	.+6      	; 0x1446 <vfprintf+0x142>
    1440:	69 2d       	mov	r22, r9
    1442:	70 e0       	ldi	r23, 0x00	; 0
    1444:	02 c0       	rjmp	.+4      	; 0x144a <vfprintf+0x146>
    1446:	6f ef       	ldi	r22, 0xFF	; 255
    1448:	7f ef       	ldi	r23, 0xFF	; 255
    144a:	c5 01       	movw	r24, r10
    144c:	7a d2       	rcall	.+1268   	; 0x1942 <strnlen>
    144e:	4c 01       	movw	r8, r24
    1450:	82 01       	movw	r16, r4
    1452:	f3 2d       	mov	r31, r3
    1454:	ff 77       	andi	r31, 0x7F	; 127
    1456:	3f 2e       	mov	r3, r31
    1458:	15 c0       	rjmp	.+42     	; 0x1484 <vfprintf+0x180>
    145a:	28 01       	movw	r4, r16
    145c:	22 e0       	ldi	r18, 0x02	; 2
    145e:	42 0e       	add	r4, r18
    1460:	51 1c       	adc	r5, r1
    1462:	f8 01       	movw	r30, r16
    1464:	a0 80       	ld	r10, Z
    1466:	b1 80       	ldd	r11, Z+1	; 0x01
    1468:	36 fe       	sbrs	r3, 6
    146a:	03 c0       	rjmp	.+6      	; 0x1472 <vfprintf+0x16e>
    146c:	69 2d       	mov	r22, r9
    146e:	70 e0       	ldi	r23, 0x00	; 0
    1470:	02 c0       	rjmp	.+4      	; 0x1476 <vfprintf+0x172>
    1472:	6f ef       	ldi	r22, 0xFF	; 255
    1474:	7f ef       	ldi	r23, 0xFF	; 255
    1476:	c5 01       	movw	r24, r10
    1478:	52 d2       	rcall	.+1188   	; 0x191e <strnlen_P>
    147a:	4c 01       	movw	r8, r24
    147c:	f3 2d       	mov	r31, r3
    147e:	f0 68       	ori	r31, 0x80	; 128
    1480:	3f 2e       	mov	r3, r31
    1482:	82 01       	movw	r16, r4
    1484:	33 fc       	sbrc	r3, 3
    1486:	19 c0       	rjmp	.+50     	; 0x14ba <vfprintf+0x1b6>
    1488:	82 2d       	mov	r24, r2
    148a:	90 e0       	ldi	r25, 0x00	; 0
    148c:	88 16       	cp	r8, r24
    148e:	99 06       	cpc	r9, r25
    1490:	a0 f4       	brcc	.+40     	; 0x14ba <vfprintf+0x1b6>
    1492:	b6 01       	movw	r22, r12
    1494:	80 e2       	ldi	r24, 0x20	; 32
    1496:	90 e0       	ldi	r25, 0x00	; 0
    1498:	5f d2       	rcall	.+1214   	; 0x1958 <fputc>
    149a:	2a 94       	dec	r2
    149c:	f5 cf       	rjmp	.-22     	; 0x1488 <vfprintf+0x184>
    149e:	f5 01       	movw	r30, r10
    14a0:	37 fc       	sbrc	r3, 7
    14a2:	85 91       	lpm	r24, Z+
    14a4:	37 fe       	sbrs	r3, 7
    14a6:	81 91       	ld	r24, Z+
    14a8:	5f 01       	movw	r10, r30
    14aa:	b6 01       	movw	r22, r12
    14ac:	90 e0       	ldi	r25, 0x00	; 0
    14ae:	54 d2       	rcall	.+1192   	; 0x1958 <fputc>
    14b0:	21 10       	cpse	r2, r1
    14b2:	2a 94       	dec	r2
    14b4:	21 e0       	ldi	r18, 0x01	; 1
    14b6:	82 1a       	sub	r8, r18
    14b8:	91 08       	sbc	r9, r1
    14ba:	81 14       	cp	r8, r1
    14bc:	91 04       	cpc	r9, r1
    14be:	79 f7       	brne	.-34     	; 0x149e <vfprintf+0x19a>
    14c0:	e1 c0       	rjmp	.+450    	; 0x1684 <vfprintf+0x380>
    14c2:	84 36       	cpi	r24, 0x64	; 100
    14c4:	11 f0       	breq	.+4      	; 0x14ca <vfprintf+0x1c6>
    14c6:	89 36       	cpi	r24, 0x69	; 105
    14c8:	39 f5       	brne	.+78     	; 0x1518 <vfprintf+0x214>
    14ca:	f8 01       	movw	r30, r16
    14cc:	37 fe       	sbrs	r3, 7
    14ce:	07 c0       	rjmp	.+14     	; 0x14de <vfprintf+0x1da>
    14d0:	60 81       	ld	r22, Z
    14d2:	71 81       	ldd	r23, Z+1	; 0x01
    14d4:	82 81       	ldd	r24, Z+2	; 0x02
    14d6:	93 81       	ldd	r25, Z+3	; 0x03
    14d8:	0c 5f       	subi	r16, 0xFC	; 252
    14da:	1f 4f       	sbci	r17, 0xFF	; 255
    14dc:	08 c0       	rjmp	.+16     	; 0x14ee <vfprintf+0x1ea>
    14de:	60 81       	ld	r22, Z
    14e0:	71 81       	ldd	r23, Z+1	; 0x01
    14e2:	07 2e       	mov	r0, r23
    14e4:	00 0c       	add	r0, r0
    14e6:	88 0b       	sbc	r24, r24
    14e8:	99 0b       	sbc	r25, r25
    14ea:	0e 5f       	subi	r16, 0xFE	; 254
    14ec:	1f 4f       	sbci	r17, 0xFF	; 255
    14ee:	f3 2d       	mov	r31, r3
    14f0:	ff 76       	andi	r31, 0x6F	; 111
    14f2:	3f 2e       	mov	r3, r31
    14f4:	97 ff       	sbrs	r25, 7
    14f6:	09 c0       	rjmp	.+18     	; 0x150a <vfprintf+0x206>
    14f8:	90 95       	com	r25
    14fa:	80 95       	com	r24
    14fc:	70 95       	com	r23
    14fe:	61 95       	neg	r22
    1500:	7f 4f       	sbci	r23, 0xFF	; 255
    1502:	8f 4f       	sbci	r24, 0xFF	; 255
    1504:	9f 4f       	sbci	r25, 0xFF	; 255
    1506:	f0 68       	ori	r31, 0x80	; 128
    1508:	3f 2e       	mov	r3, r31
    150a:	2a e0       	ldi	r18, 0x0A	; 10
    150c:	30 e0       	ldi	r19, 0x00	; 0
    150e:	a3 01       	movw	r20, r6
    1510:	5f d2       	rcall	.+1214   	; 0x19d0 <__ultoa_invert>
    1512:	88 2e       	mov	r8, r24
    1514:	86 18       	sub	r8, r6
    1516:	44 c0       	rjmp	.+136    	; 0x15a0 <vfprintf+0x29c>
    1518:	85 37       	cpi	r24, 0x75	; 117
    151a:	31 f4       	brne	.+12     	; 0x1528 <vfprintf+0x224>
    151c:	23 2d       	mov	r18, r3
    151e:	2f 7e       	andi	r18, 0xEF	; 239
    1520:	b2 2e       	mov	r11, r18
    1522:	2a e0       	ldi	r18, 0x0A	; 10
    1524:	30 e0       	ldi	r19, 0x00	; 0
    1526:	25 c0       	rjmp	.+74     	; 0x1572 <vfprintf+0x26e>
    1528:	93 2d       	mov	r25, r3
    152a:	99 7f       	andi	r25, 0xF9	; 249
    152c:	b9 2e       	mov	r11, r25
    152e:	8f 36       	cpi	r24, 0x6F	; 111
    1530:	c1 f0       	breq	.+48     	; 0x1562 <vfprintf+0x25e>
    1532:	18 f4       	brcc	.+6      	; 0x153a <vfprintf+0x236>
    1534:	88 35       	cpi	r24, 0x58	; 88
    1536:	79 f0       	breq	.+30     	; 0x1556 <vfprintf+0x252>
    1538:	ae c0       	rjmp	.+348    	; 0x1696 <vfprintf+0x392>
    153a:	80 37       	cpi	r24, 0x70	; 112
    153c:	19 f0       	breq	.+6      	; 0x1544 <vfprintf+0x240>
    153e:	88 37       	cpi	r24, 0x78	; 120
    1540:	21 f0       	breq	.+8      	; 0x154a <vfprintf+0x246>
    1542:	a9 c0       	rjmp	.+338    	; 0x1696 <vfprintf+0x392>
    1544:	e9 2f       	mov	r30, r25
    1546:	e0 61       	ori	r30, 0x10	; 16
    1548:	be 2e       	mov	r11, r30
    154a:	b4 fe       	sbrs	r11, 4
    154c:	0d c0       	rjmp	.+26     	; 0x1568 <vfprintf+0x264>
    154e:	fb 2d       	mov	r31, r11
    1550:	f4 60       	ori	r31, 0x04	; 4
    1552:	bf 2e       	mov	r11, r31
    1554:	09 c0       	rjmp	.+18     	; 0x1568 <vfprintf+0x264>
    1556:	34 fe       	sbrs	r3, 4
    1558:	0a c0       	rjmp	.+20     	; 0x156e <vfprintf+0x26a>
    155a:	29 2f       	mov	r18, r25
    155c:	26 60       	ori	r18, 0x06	; 6
    155e:	b2 2e       	mov	r11, r18
    1560:	06 c0       	rjmp	.+12     	; 0x156e <vfprintf+0x26a>
    1562:	28 e0       	ldi	r18, 0x08	; 8
    1564:	30 e0       	ldi	r19, 0x00	; 0
    1566:	05 c0       	rjmp	.+10     	; 0x1572 <vfprintf+0x26e>
    1568:	20 e1       	ldi	r18, 0x10	; 16
    156a:	30 e0       	ldi	r19, 0x00	; 0
    156c:	02 c0       	rjmp	.+4      	; 0x1572 <vfprintf+0x26e>
    156e:	20 e1       	ldi	r18, 0x10	; 16
    1570:	32 e0       	ldi	r19, 0x02	; 2
    1572:	f8 01       	movw	r30, r16
    1574:	b7 fe       	sbrs	r11, 7
    1576:	07 c0       	rjmp	.+14     	; 0x1586 <vfprintf+0x282>
    1578:	60 81       	ld	r22, Z
    157a:	71 81       	ldd	r23, Z+1	; 0x01
    157c:	82 81       	ldd	r24, Z+2	; 0x02
    157e:	93 81       	ldd	r25, Z+3	; 0x03
    1580:	0c 5f       	subi	r16, 0xFC	; 252
    1582:	1f 4f       	sbci	r17, 0xFF	; 255
    1584:	06 c0       	rjmp	.+12     	; 0x1592 <vfprintf+0x28e>
    1586:	60 81       	ld	r22, Z
    1588:	71 81       	ldd	r23, Z+1	; 0x01
    158a:	80 e0       	ldi	r24, 0x00	; 0
    158c:	90 e0       	ldi	r25, 0x00	; 0
    158e:	0e 5f       	subi	r16, 0xFE	; 254
    1590:	1f 4f       	sbci	r17, 0xFF	; 255
    1592:	a3 01       	movw	r20, r6
    1594:	1d d2       	rcall	.+1082   	; 0x19d0 <__ultoa_invert>
    1596:	88 2e       	mov	r8, r24
    1598:	86 18       	sub	r8, r6
    159a:	fb 2d       	mov	r31, r11
    159c:	ff 77       	andi	r31, 0x7F	; 127
    159e:	3f 2e       	mov	r3, r31
    15a0:	36 fe       	sbrs	r3, 6
    15a2:	0d c0       	rjmp	.+26     	; 0x15be <vfprintf+0x2ba>
    15a4:	23 2d       	mov	r18, r3
    15a6:	2e 7f       	andi	r18, 0xFE	; 254
    15a8:	a2 2e       	mov	r10, r18
    15aa:	89 14       	cp	r8, r9
    15ac:	58 f4       	brcc	.+22     	; 0x15c4 <vfprintf+0x2c0>
    15ae:	34 fe       	sbrs	r3, 4
    15b0:	0b c0       	rjmp	.+22     	; 0x15c8 <vfprintf+0x2c4>
    15b2:	32 fc       	sbrc	r3, 2
    15b4:	09 c0       	rjmp	.+18     	; 0x15c8 <vfprintf+0x2c4>
    15b6:	83 2d       	mov	r24, r3
    15b8:	8e 7e       	andi	r24, 0xEE	; 238
    15ba:	a8 2e       	mov	r10, r24
    15bc:	05 c0       	rjmp	.+10     	; 0x15c8 <vfprintf+0x2c4>
    15be:	b8 2c       	mov	r11, r8
    15c0:	a3 2c       	mov	r10, r3
    15c2:	03 c0       	rjmp	.+6      	; 0x15ca <vfprintf+0x2c6>
    15c4:	b8 2c       	mov	r11, r8
    15c6:	01 c0       	rjmp	.+2      	; 0x15ca <vfprintf+0x2c6>
    15c8:	b9 2c       	mov	r11, r9
    15ca:	a4 fe       	sbrs	r10, 4
    15cc:	0f c0       	rjmp	.+30     	; 0x15ec <vfprintf+0x2e8>
    15ce:	fe 01       	movw	r30, r28
    15d0:	e8 0d       	add	r30, r8
    15d2:	f1 1d       	adc	r31, r1
    15d4:	80 81       	ld	r24, Z
    15d6:	80 33       	cpi	r24, 0x30	; 48
    15d8:	21 f4       	brne	.+8      	; 0x15e2 <vfprintf+0x2de>
    15da:	9a 2d       	mov	r25, r10
    15dc:	99 7e       	andi	r25, 0xE9	; 233
    15de:	a9 2e       	mov	r10, r25
    15e0:	09 c0       	rjmp	.+18     	; 0x15f4 <vfprintf+0x2f0>
    15e2:	a2 fe       	sbrs	r10, 2
    15e4:	06 c0       	rjmp	.+12     	; 0x15f2 <vfprintf+0x2ee>
    15e6:	b3 94       	inc	r11
    15e8:	b3 94       	inc	r11
    15ea:	04 c0       	rjmp	.+8      	; 0x15f4 <vfprintf+0x2f0>
    15ec:	8a 2d       	mov	r24, r10
    15ee:	86 78       	andi	r24, 0x86	; 134
    15f0:	09 f0       	breq	.+2      	; 0x15f4 <vfprintf+0x2f0>
    15f2:	b3 94       	inc	r11
    15f4:	a3 fc       	sbrc	r10, 3
    15f6:	10 c0       	rjmp	.+32     	; 0x1618 <vfprintf+0x314>
    15f8:	a0 fe       	sbrs	r10, 0
    15fa:	06 c0       	rjmp	.+12     	; 0x1608 <vfprintf+0x304>
    15fc:	b2 14       	cp	r11, r2
    15fe:	80 f4       	brcc	.+32     	; 0x1620 <vfprintf+0x31c>
    1600:	28 0c       	add	r2, r8
    1602:	92 2c       	mov	r9, r2
    1604:	9b 18       	sub	r9, r11
    1606:	0d c0       	rjmp	.+26     	; 0x1622 <vfprintf+0x31e>
    1608:	b2 14       	cp	r11, r2
    160a:	58 f4       	brcc	.+22     	; 0x1622 <vfprintf+0x31e>
    160c:	b6 01       	movw	r22, r12
    160e:	80 e2       	ldi	r24, 0x20	; 32
    1610:	90 e0       	ldi	r25, 0x00	; 0
    1612:	a2 d1       	rcall	.+836    	; 0x1958 <fputc>
    1614:	b3 94       	inc	r11
    1616:	f8 cf       	rjmp	.-16     	; 0x1608 <vfprintf+0x304>
    1618:	b2 14       	cp	r11, r2
    161a:	18 f4       	brcc	.+6      	; 0x1622 <vfprintf+0x31e>
    161c:	2b 18       	sub	r2, r11
    161e:	02 c0       	rjmp	.+4      	; 0x1624 <vfprintf+0x320>
    1620:	98 2c       	mov	r9, r8
    1622:	21 2c       	mov	r2, r1
    1624:	a4 fe       	sbrs	r10, 4
    1626:	0f c0       	rjmp	.+30     	; 0x1646 <vfprintf+0x342>
    1628:	b6 01       	movw	r22, r12
    162a:	80 e3       	ldi	r24, 0x30	; 48
    162c:	90 e0       	ldi	r25, 0x00	; 0
    162e:	94 d1       	rcall	.+808    	; 0x1958 <fputc>
    1630:	a2 fe       	sbrs	r10, 2
    1632:	16 c0       	rjmp	.+44     	; 0x1660 <vfprintf+0x35c>
    1634:	a1 fc       	sbrc	r10, 1
    1636:	03 c0       	rjmp	.+6      	; 0x163e <vfprintf+0x33a>
    1638:	88 e7       	ldi	r24, 0x78	; 120
    163a:	90 e0       	ldi	r25, 0x00	; 0
    163c:	02 c0       	rjmp	.+4      	; 0x1642 <vfprintf+0x33e>
    163e:	88 e5       	ldi	r24, 0x58	; 88
    1640:	90 e0       	ldi	r25, 0x00	; 0
    1642:	b6 01       	movw	r22, r12
    1644:	0c c0       	rjmp	.+24     	; 0x165e <vfprintf+0x35a>
    1646:	8a 2d       	mov	r24, r10
    1648:	86 78       	andi	r24, 0x86	; 134
    164a:	51 f0       	breq	.+20     	; 0x1660 <vfprintf+0x35c>
    164c:	a1 fe       	sbrs	r10, 1
    164e:	02 c0       	rjmp	.+4      	; 0x1654 <vfprintf+0x350>
    1650:	8b e2       	ldi	r24, 0x2B	; 43
    1652:	01 c0       	rjmp	.+2      	; 0x1656 <vfprintf+0x352>
    1654:	80 e2       	ldi	r24, 0x20	; 32
    1656:	a7 fc       	sbrc	r10, 7
    1658:	8d e2       	ldi	r24, 0x2D	; 45
    165a:	b6 01       	movw	r22, r12
    165c:	90 e0       	ldi	r25, 0x00	; 0
    165e:	7c d1       	rcall	.+760    	; 0x1958 <fputc>
    1660:	89 14       	cp	r8, r9
    1662:	30 f4       	brcc	.+12     	; 0x1670 <vfprintf+0x36c>
    1664:	b6 01       	movw	r22, r12
    1666:	80 e3       	ldi	r24, 0x30	; 48
    1668:	90 e0       	ldi	r25, 0x00	; 0
    166a:	76 d1       	rcall	.+748    	; 0x1958 <fputc>
    166c:	9a 94       	dec	r9
    166e:	f8 cf       	rjmp	.-16     	; 0x1660 <vfprintf+0x35c>
    1670:	8a 94       	dec	r8
    1672:	f3 01       	movw	r30, r6
    1674:	e8 0d       	add	r30, r8
    1676:	f1 1d       	adc	r31, r1
    1678:	80 81       	ld	r24, Z
    167a:	b6 01       	movw	r22, r12
    167c:	90 e0       	ldi	r25, 0x00	; 0
    167e:	6c d1       	rcall	.+728    	; 0x1958 <fputc>
    1680:	81 10       	cpse	r8, r1
    1682:	f6 cf       	rjmp	.-20     	; 0x1670 <vfprintf+0x36c>
    1684:	22 20       	and	r2, r2
    1686:	09 f4       	brne	.+2      	; 0x168a <vfprintf+0x386>
    1688:	4e ce       	rjmp	.-868    	; 0x1326 <vfprintf+0x22>
    168a:	b6 01       	movw	r22, r12
    168c:	80 e2       	ldi	r24, 0x20	; 32
    168e:	90 e0       	ldi	r25, 0x00	; 0
    1690:	63 d1       	rcall	.+710    	; 0x1958 <fputc>
    1692:	2a 94       	dec	r2
    1694:	f7 cf       	rjmp	.-18     	; 0x1684 <vfprintf+0x380>
    1696:	f6 01       	movw	r30, r12
    1698:	86 81       	ldd	r24, Z+6	; 0x06
    169a:	97 81       	ldd	r25, Z+7	; 0x07
    169c:	02 c0       	rjmp	.+4      	; 0x16a2 <vfprintf+0x39e>
    169e:	8f ef       	ldi	r24, 0xFF	; 255
    16a0:	9f ef       	ldi	r25, 0xFF	; 255
    16a2:	2b 96       	adiw	r28, 0x0b	; 11
    16a4:	e2 e1       	ldi	r30, 0x12	; 18
    16a6:	0e c2       	rjmp	.+1052   	; 0x1ac4 <__epilogue_restores__>

000016a8 <calloc>:
    16a8:	0f 93       	push	r16
    16aa:	1f 93       	push	r17
    16ac:	cf 93       	push	r28
    16ae:	df 93       	push	r29
    16b0:	86 9f       	mul	r24, r22
    16b2:	80 01       	movw	r16, r0
    16b4:	87 9f       	mul	r24, r23
    16b6:	10 0d       	add	r17, r0
    16b8:	96 9f       	mul	r25, r22
    16ba:	10 0d       	add	r17, r0
    16bc:	11 24       	eor	r1, r1
    16be:	c8 01       	movw	r24, r16
    16c0:	0d d0       	rcall	.+26     	; 0x16dc <malloc>
    16c2:	ec 01       	movw	r28, r24
    16c4:	00 97       	sbiw	r24, 0x00	; 0
    16c6:	21 f0       	breq	.+8      	; 0x16d0 <calloc+0x28>
    16c8:	a8 01       	movw	r20, r16
    16ca:	60 e0       	ldi	r22, 0x00	; 0
    16cc:	70 e0       	ldi	r23, 0x00	; 0
    16ce:	32 d1       	rcall	.+612    	; 0x1934 <memset>
    16d0:	ce 01       	movw	r24, r28
    16d2:	df 91       	pop	r29
    16d4:	cf 91       	pop	r28
    16d6:	1f 91       	pop	r17
    16d8:	0f 91       	pop	r16
    16da:	08 95       	ret

000016dc <malloc>:
    16dc:	0f 93       	push	r16
    16de:	1f 93       	push	r17
    16e0:	cf 93       	push	r28
    16e2:	df 93       	push	r29
    16e4:	82 30       	cpi	r24, 0x02	; 2
    16e6:	91 05       	cpc	r25, r1
    16e8:	10 f4       	brcc	.+4      	; 0x16ee <malloc+0x12>
    16ea:	82 e0       	ldi	r24, 0x02	; 2
    16ec:	90 e0       	ldi	r25, 0x00	; 0
    16ee:	e0 91 cc 02 	lds	r30, 0x02CC	; 0x8002cc <__flp>
    16f2:	f0 91 cd 02 	lds	r31, 0x02CD	; 0x8002cd <__flp+0x1>
    16f6:	20 e0       	ldi	r18, 0x00	; 0
    16f8:	30 e0       	ldi	r19, 0x00	; 0
    16fa:	a0 e0       	ldi	r26, 0x00	; 0
    16fc:	b0 e0       	ldi	r27, 0x00	; 0
    16fe:	30 97       	sbiw	r30, 0x00	; 0
    1700:	19 f1       	breq	.+70     	; 0x1748 <malloc+0x6c>
    1702:	40 81       	ld	r20, Z
    1704:	51 81       	ldd	r21, Z+1	; 0x01
    1706:	02 81       	ldd	r16, Z+2	; 0x02
    1708:	13 81       	ldd	r17, Z+3	; 0x03
    170a:	48 17       	cp	r20, r24
    170c:	59 07       	cpc	r21, r25
    170e:	c8 f0       	brcs	.+50     	; 0x1742 <malloc+0x66>
    1710:	84 17       	cp	r24, r20
    1712:	95 07       	cpc	r25, r21
    1714:	69 f4       	brne	.+26     	; 0x1730 <malloc+0x54>
    1716:	10 97       	sbiw	r26, 0x00	; 0
    1718:	31 f0       	breq	.+12     	; 0x1726 <malloc+0x4a>
    171a:	12 96       	adiw	r26, 0x02	; 2
    171c:	0c 93       	st	X, r16
    171e:	12 97       	sbiw	r26, 0x02	; 2
    1720:	13 96       	adiw	r26, 0x03	; 3
    1722:	1c 93       	st	X, r17
    1724:	27 c0       	rjmp	.+78     	; 0x1774 <malloc+0x98>
    1726:	00 93 cc 02 	sts	0x02CC, r16	; 0x8002cc <__flp>
    172a:	10 93 cd 02 	sts	0x02CD, r17	; 0x8002cd <__flp+0x1>
    172e:	22 c0       	rjmp	.+68     	; 0x1774 <malloc+0x98>
    1730:	21 15       	cp	r18, r1
    1732:	31 05       	cpc	r19, r1
    1734:	19 f0       	breq	.+6      	; 0x173c <malloc+0x60>
    1736:	42 17       	cp	r20, r18
    1738:	53 07       	cpc	r21, r19
    173a:	18 f4       	brcc	.+6      	; 0x1742 <malloc+0x66>
    173c:	9a 01       	movw	r18, r20
    173e:	bd 01       	movw	r22, r26
    1740:	ef 01       	movw	r28, r30
    1742:	df 01       	movw	r26, r30
    1744:	f8 01       	movw	r30, r16
    1746:	db cf       	rjmp	.-74     	; 0x16fe <malloc+0x22>
    1748:	21 15       	cp	r18, r1
    174a:	31 05       	cpc	r19, r1
    174c:	f9 f0       	breq	.+62     	; 0x178c <malloc+0xb0>
    174e:	28 1b       	sub	r18, r24
    1750:	39 0b       	sbc	r19, r25
    1752:	24 30       	cpi	r18, 0x04	; 4
    1754:	31 05       	cpc	r19, r1
    1756:	80 f4       	brcc	.+32     	; 0x1778 <malloc+0x9c>
    1758:	8a 81       	ldd	r24, Y+2	; 0x02
    175a:	9b 81       	ldd	r25, Y+3	; 0x03
    175c:	61 15       	cp	r22, r1
    175e:	71 05       	cpc	r23, r1
    1760:	21 f0       	breq	.+8      	; 0x176a <malloc+0x8e>
    1762:	fb 01       	movw	r30, r22
    1764:	93 83       	std	Z+3, r25	; 0x03
    1766:	82 83       	std	Z+2, r24	; 0x02
    1768:	04 c0       	rjmp	.+8      	; 0x1772 <malloc+0x96>
    176a:	90 93 cd 02 	sts	0x02CD, r25	; 0x8002cd <__flp+0x1>
    176e:	80 93 cc 02 	sts	0x02CC, r24	; 0x8002cc <__flp>
    1772:	fe 01       	movw	r30, r28
    1774:	32 96       	adiw	r30, 0x02	; 2
    1776:	44 c0       	rjmp	.+136    	; 0x1800 <malloc+0x124>
    1778:	fe 01       	movw	r30, r28
    177a:	e2 0f       	add	r30, r18
    177c:	f3 1f       	adc	r31, r19
    177e:	81 93       	st	Z+, r24
    1780:	91 93       	st	Z+, r25
    1782:	22 50       	subi	r18, 0x02	; 2
    1784:	31 09       	sbc	r19, r1
    1786:	39 83       	std	Y+1, r19	; 0x01
    1788:	28 83       	st	Y, r18
    178a:	3a c0       	rjmp	.+116    	; 0x1800 <malloc+0x124>
    178c:	20 91 ca 02 	lds	r18, 0x02CA	; 0x8002ca <__brkval>
    1790:	30 91 cb 02 	lds	r19, 0x02CB	; 0x8002cb <__brkval+0x1>
    1794:	23 2b       	or	r18, r19
    1796:	41 f4       	brne	.+16     	; 0x17a8 <malloc+0xcc>
    1798:	20 91 02 01 	lds	r18, 0x0102	; 0x800102 <__malloc_heap_start>
    179c:	30 91 03 01 	lds	r19, 0x0103	; 0x800103 <__malloc_heap_start+0x1>
    17a0:	30 93 cb 02 	sts	0x02CB, r19	; 0x8002cb <__brkval+0x1>
    17a4:	20 93 ca 02 	sts	0x02CA, r18	; 0x8002ca <__brkval>
    17a8:	20 91 00 01 	lds	r18, 0x0100	; 0x800100 <__data_start>
    17ac:	30 91 01 01 	lds	r19, 0x0101	; 0x800101 <__data_start+0x1>
    17b0:	21 15       	cp	r18, r1
    17b2:	31 05       	cpc	r19, r1
    17b4:	41 f4       	brne	.+16     	; 0x17c6 <malloc+0xea>
    17b6:	2d b7       	in	r18, 0x3d	; 61
    17b8:	3e b7       	in	r19, 0x3e	; 62
    17ba:	40 91 04 01 	lds	r20, 0x0104	; 0x800104 <__malloc_margin>
    17be:	50 91 05 01 	lds	r21, 0x0105	; 0x800105 <__malloc_margin+0x1>
    17c2:	24 1b       	sub	r18, r20
    17c4:	35 0b       	sbc	r19, r21
    17c6:	e0 91 ca 02 	lds	r30, 0x02CA	; 0x8002ca <__brkval>
    17ca:	f0 91 cb 02 	lds	r31, 0x02CB	; 0x8002cb <__brkval+0x1>
    17ce:	e2 17       	cp	r30, r18
    17d0:	f3 07       	cpc	r31, r19
    17d2:	a0 f4       	brcc	.+40     	; 0x17fc <malloc+0x120>
    17d4:	2e 1b       	sub	r18, r30
    17d6:	3f 0b       	sbc	r19, r31
    17d8:	28 17       	cp	r18, r24
    17da:	39 07       	cpc	r19, r25
    17dc:	78 f0       	brcs	.+30     	; 0x17fc <malloc+0x120>
    17de:	ac 01       	movw	r20, r24
    17e0:	4e 5f       	subi	r20, 0xFE	; 254
    17e2:	5f 4f       	sbci	r21, 0xFF	; 255
    17e4:	24 17       	cp	r18, r20
    17e6:	35 07       	cpc	r19, r21
    17e8:	48 f0       	brcs	.+18     	; 0x17fc <malloc+0x120>
    17ea:	4e 0f       	add	r20, r30
    17ec:	5f 1f       	adc	r21, r31
    17ee:	50 93 cb 02 	sts	0x02CB, r21	; 0x8002cb <__brkval+0x1>
    17f2:	40 93 ca 02 	sts	0x02CA, r20	; 0x8002ca <__brkval>
    17f6:	81 93       	st	Z+, r24
    17f8:	91 93       	st	Z+, r25
    17fa:	02 c0       	rjmp	.+4      	; 0x1800 <malloc+0x124>
    17fc:	e0 e0       	ldi	r30, 0x00	; 0
    17fe:	f0 e0       	ldi	r31, 0x00	; 0
    1800:	cf 01       	movw	r24, r30
    1802:	df 91       	pop	r29
    1804:	cf 91       	pop	r28
    1806:	1f 91       	pop	r17
    1808:	0f 91       	pop	r16
    180a:	08 95       	ret

0000180c <free>:
    180c:	cf 93       	push	r28
    180e:	df 93       	push	r29
    1810:	00 97       	sbiw	r24, 0x00	; 0
    1812:	09 f4       	brne	.+2      	; 0x1816 <free+0xa>
    1814:	81 c0       	rjmp	.+258    	; 0x1918 <free+0x10c>
    1816:	fc 01       	movw	r30, r24
    1818:	32 97       	sbiw	r30, 0x02	; 2
    181a:	13 82       	std	Z+3, r1	; 0x03
    181c:	12 82       	std	Z+2, r1	; 0x02
    181e:	a0 91 cc 02 	lds	r26, 0x02CC	; 0x8002cc <__flp>
    1822:	b0 91 cd 02 	lds	r27, 0x02CD	; 0x8002cd <__flp+0x1>
    1826:	10 97       	sbiw	r26, 0x00	; 0
    1828:	81 f4       	brne	.+32     	; 0x184a <free+0x3e>
    182a:	20 81       	ld	r18, Z
    182c:	31 81       	ldd	r19, Z+1	; 0x01
    182e:	82 0f       	add	r24, r18
    1830:	93 1f       	adc	r25, r19
    1832:	20 91 ca 02 	lds	r18, 0x02CA	; 0x8002ca <__brkval>
    1836:	30 91 cb 02 	lds	r19, 0x02CB	; 0x8002cb <__brkval+0x1>
    183a:	28 17       	cp	r18, r24
    183c:	39 07       	cpc	r19, r25
    183e:	51 f5       	brne	.+84     	; 0x1894 <free+0x88>
    1840:	f0 93 cb 02 	sts	0x02CB, r31	; 0x8002cb <__brkval+0x1>
    1844:	e0 93 ca 02 	sts	0x02CA, r30	; 0x8002ca <__brkval>
    1848:	67 c0       	rjmp	.+206    	; 0x1918 <free+0x10c>
    184a:	ed 01       	movw	r28, r26
    184c:	20 e0       	ldi	r18, 0x00	; 0
    184e:	30 e0       	ldi	r19, 0x00	; 0
    1850:	ce 17       	cp	r28, r30
    1852:	df 07       	cpc	r29, r31
    1854:	40 f4       	brcc	.+16     	; 0x1866 <free+0x5a>
    1856:	4a 81       	ldd	r20, Y+2	; 0x02
    1858:	5b 81       	ldd	r21, Y+3	; 0x03
    185a:	9e 01       	movw	r18, r28
    185c:	41 15       	cp	r20, r1
    185e:	51 05       	cpc	r21, r1
    1860:	f1 f0       	breq	.+60     	; 0x189e <free+0x92>
    1862:	ea 01       	movw	r28, r20
    1864:	f5 cf       	rjmp	.-22     	; 0x1850 <free+0x44>
    1866:	d3 83       	std	Z+3, r29	; 0x03
    1868:	c2 83       	std	Z+2, r28	; 0x02
    186a:	40 81       	ld	r20, Z
    186c:	51 81       	ldd	r21, Z+1	; 0x01
    186e:	84 0f       	add	r24, r20
    1870:	95 1f       	adc	r25, r21
    1872:	c8 17       	cp	r28, r24
    1874:	d9 07       	cpc	r29, r25
    1876:	59 f4       	brne	.+22     	; 0x188e <free+0x82>
    1878:	88 81       	ld	r24, Y
    187a:	99 81       	ldd	r25, Y+1	; 0x01
    187c:	84 0f       	add	r24, r20
    187e:	95 1f       	adc	r25, r21
    1880:	02 96       	adiw	r24, 0x02	; 2
    1882:	91 83       	std	Z+1, r25	; 0x01
    1884:	80 83       	st	Z, r24
    1886:	8a 81       	ldd	r24, Y+2	; 0x02
    1888:	9b 81       	ldd	r25, Y+3	; 0x03
    188a:	93 83       	std	Z+3, r25	; 0x03
    188c:	82 83       	std	Z+2, r24	; 0x02
    188e:	21 15       	cp	r18, r1
    1890:	31 05       	cpc	r19, r1
    1892:	29 f4       	brne	.+10     	; 0x189e <free+0x92>
    1894:	f0 93 cd 02 	sts	0x02CD, r31	; 0x8002cd <__flp+0x1>
    1898:	e0 93 cc 02 	sts	0x02CC, r30	; 0x8002cc <__flp>
    189c:	3d c0       	rjmp	.+122    	; 0x1918 <free+0x10c>
    189e:	e9 01       	movw	r28, r18
    18a0:	fb 83       	std	Y+3, r31	; 0x03
    18a2:	ea 83       	std	Y+2, r30	; 0x02
    18a4:	49 91       	ld	r20, Y+
    18a6:	59 91       	ld	r21, Y+
    18a8:	c4 0f       	add	r28, r20
    18aa:	d5 1f       	adc	r29, r21
    18ac:	ec 17       	cp	r30, r28
    18ae:	fd 07       	cpc	r31, r29
    18b0:	61 f4       	brne	.+24     	; 0x18ca <free+0xbe>
    18b2:	80 81       	ld	r24, Z
    18b4:	91 81       	ldd	r25, Z+1	; 0x01
    18b6:	84 0f       	add	r24, r20
    18b8:	95 1f       	adc	r25, r21
    18ba:	02 96       	adiw	r24, 0x02	; 2
    18bc:	e9 01       	movw	r28, r18
    18be:	99 83       	std	Y+1, r25	; 0x01
    18c0:	88 83       	st	Y, r24
    18c2:	82 81       	ldd	r24, Z+2	; 0x02
    18c4:	93 81       	ldd	r25, Z+3	; 0x03
    18c6:	9b 83       	std	Y+3, r25	; 0x03
    18c8:	8a 83       	std	Y+2, r24	; 0x02
    18ca:	e0 e0       	ldi	r30, 0x00	; 0
    18cc:	f0 e0       	ldi	r31, 0x00	; 0
    18ce:	12 96       	adiw	r26, 0x02	; 2
    18d0:	8d 91       	ld	r24, X+
    18d2:	9c 91       	ld	r25, X
    18d4:	13 97       	sbiw	r26, 0x03	; 3
    18d6:	00 97       	sbiw	r24, 0x00	; 0
    18d8:	19 f0       	breq	.+6      	; 0x18e0 <free+0xd4>
    18da:	fd 01       	movw	r30, r26
    18dc:	dc 01       	movw	r26, r24
    18de:	f7 cf       	rjmp	.-18     	; 0x18ce <free+0xc2>
    18e0:	8d 91       	ld	r24, X+
    18e2:	9c 91       	ld	r25, X
    18e4:	11 97       	sbiw	r26, 0x01	; 1
    18e6:	9d 01       	movw	r18, r26
    18e8:	2e 5f       	subi	r18, 0xFE	; 254
    18ea:	3f 4f       	sbci	r19, 0xFF	; 255
    18ec:	82 0f       	add	r24, r18
    18ee:	93 1f       	adc	r25, r19
    18f0:	20 91 ca 02 	lds	r18, 0x02CA	; 0x8002ca <__brkval>
    18f4:	30 91 cb 02 	lds	r19, 0x02CB	; 0x8002cb <__brkval+0x1>
    18f8:	28 17       	cp	r18, r24
    18fa:	39 07       	cpc	r19, r25
    18fc:	69 f4       	brne	.+26     	; 0x1918 <free+0x10c>
    18fe:	30 97       	sbiw	r30, 0x00	; 0
    1900:	29 f4       	brne	.+10     	; 0x190c <free+0x100>
    1902:	10 92 cd 02 	sts	0x02CD, r1	; 0x8002cd <__flp+0x1>
    1906:	10 92 cc 02 	sts	0x02CC, r1	; 0x8002cc <__flp>
    190a:	02 c0       	rjmp	.+4      	; 0x1910 <free+0x104>
    190c:	13 82       	std	Z+3, r1	; 0x03
    190e:	12 82       	std	Z+2, r1	; 0x02
    1910:	b0 93 cb 02 	sts	0x02CB, r27	; 0x8002cb <__brkval+0x1>
    1914:	a0 93 ca 02 	sts	0x02CA, r26	; 0x8002ca <__brkval>
    1918:	df 91       	pop	r29
    191a:	cf 91       	pop	r28
    191c:	08 95       	ret

0000191e <strnlen_P>:
    191e:	fc 01       	movw	r30, r24
    1920:	05 90       	lpm	r0, Z+
    1922:	61 50       	subi	r22, 0x01	; 1
    1924:	70 40       	sbci	r23, 0x00	; 0
    1926:	01 10       	cpse	r0, r1
    1928:	d8 f7       	brcc	.-10     	; 0x1920 <strnlen_P+0x2>
    192a:	80 95       	com	r24
    192c:	90 95       	com	r25
    192e:	8e 0f       	add	r24, r30
    1930:	9f 1f       	adc	r25, r31
    1932:	08 95       	ret

00001934 <memset>:
    1934:	dc 01       	movw	r26, r24
    1936:	01 c0       	rjmp	.+2      	; 0x193a <memset+0x6>
    1938:	6d 93       	st	X+, r22
    193a:	41 50       	subi	r20, 0x01	; 1
    193c:	50 40       	sbci	r21, 0x00	; 0
    193e:	e0 f7       	brcc	.-8      	; 0x1938 <memset+0x4>
    1940:	08 95       	ret

00001942 <strnlen>:
    1942:	fc 01       	movw	r30, r24
    1944:	61 50       	subi	r22, 0x01	; 1
    1946:	70 40       	sbci	r23, 0x00	; 0
    1948:	01 90       	ld	r0, Z+
    194a:	01 10       	cpse	r0, r1
    194c:	d8 f7       	brcc	.-10     	; 0x1944 <strnlen+0x2>
    194e:	80 95       	com	r24
    1950:	90 95       	com	r25
    1952:	8e 0f       	add	r24, r30
    1954:	9f 1f       	adc	r25, r31
    1956:	08 95       	ret

00001958 <fputc>:
    1958:	0f 93       	push	r16
    195a:	1f 93       	push	r17
    195c:	cf 93       	push	r28
    195e:	df 93       	push	r29
    1960:	fb 01       	movw	r30, r22
    1962:	23 81       	ldd	r18, Z+3	; 0x03
    1964:	21 fd       	sbrc	r18, 1
    1966:	03 c0       	rjmp	.+6      	; 0x196e <fputc+0x16>
    1968:	8f ef       	ldi	r24, 0xFF	; 255
    196a:	9f ef       	ldi	r25, 0xFF	; 255
    196c:	2c c0       	rjmp	.+88     	; 0x19c6 <fputc+0x6e>
    196e:	22 ff       	sbrs	r18, 2
    1970:	16 c0       	rjmp	.+44     	; 0x199e <fputc+0x46>
    1972:	46 81       	ldd	r20, Z+6	; 0x06
    1974:	57 81       	ldd	r21, Z+7	; 0x07
    1976:	24 81       	ldd	r18, Z+4	; 0x04
    1978:	35 81       	ldd	r19, Z+5	; 0x05
    197a:	42 17       	cp	r20, r18
    197c:	53 07       	cpc	r21, r19
    197e:	44 f4       	brge	.+16     	; 0x1990 <fputc+0x38>
    1980:	a0 81       	ld	r26, Z
    1982:	b1 81       	ldd	r27, Z+1	; 0x01
    1984:	9d 01       	movw	r18, r26
    1986:	2f 5f       	subi	r18, 0xFF	; 255
    1988:	3f 4f       	sbci	r19, 0xFF	; 255
    198a:	31 83       	std	Z+1, r19	; 0x01
    198c:	20 83       	st	Z, r18
    198e:	8c 93       	st	X, r24
    1990:	26 81       	ldd	r18, Z+6	; 0x06
    1992:	37 81       	ldd	r19, Z+7	; 0x07
    1994:	2f 5f       	subi	r18, 0xFF	; 255
    1996:	3f 4f       	sbci	r19, 0xFF	; 255
    1998:	37 83       	std	Z+7, r19	; 0x07
    199a:	26 83       	std	Z+6, r18	; 0x06
    199c:	14 c0       	rjmp	.+40     	; 0x19c6 <fputc+0x6e>
    199e:	8b 01       	movw	r16, r22
    19a0:	ec 01       	movw	r28, r24
    19a2:	fb 01       	movw	r30, r22
    19a4:	00 84       	ldd	r0, Z+8	; 0x08
    19a6:	f1 85       	ldd	r31, Z+9	; 0x09
    19a8:	e0 2d       	mov	r30, r0
    19aa:	09 95       	icall
    19ac:	89 2b       	or	r24, r25
    19ae:	e1 f6       	brne	.-72     	; 0x1968 <fputc+0x10>
    19b0:	d8 01       	movw	r26, r16
    19b2:	16 96       	adiw	r26, 0x06	; 6
    19b4:	8d 91       	ld	r24, X+
    19b6:	9c 91       	ld	r25, X
    19b8:	17 97       	sbiw	r26, 0x07	; 7
    19ba:	01 96       	adiw	r24, 0x01	; 1
    19bc:	17 96       	adiw	r26, 0x07	; 7
    19be:	9c 93       	st	X, r25
    19c0:	8e 93       	st	-X, r24
    19c2:	16 97       	sbiw	r26, 0x06	; 6
    19c4:	ce 01       	movw	r24, r28
    19c6:	df 91       	pop	r29
    19c8:	cf 91       	pop	r28
    19ca:	1f 91       	pop	r17
    19cc:	0f 91       	pop	r16
    19ce:	08 95       	ret

000019d0 <__ultoa_invert>:
    19d0:	fa 01       	movw	r30, r20
    19d2:	aa 27       	eor	r26, r26
    19d4:	28 30       	cpi	r18, 0x08	; 8
    19d6:	51 f1       	breq	.+84     	; 0x1a2c <__ultoa_invert+0x5c>
    19d8:	20 31       	cpi	r18, 0x10	; 16
    19da:	81 f1       	breq	.+96     	; 0x1a3c <__ultoa_invert+0x6c>
    19dc:	e8 94       	clt
    19de:	6f 93       	push	r22
    19e0:	6e 7f       	andi	r22, 0xFE	; 254
    19e2:	6e 5f       	subi	r22, 0xFE	; 254
    19e4:	7f 4f       	sbci	r23, 0xFF	; 255
    19e6:	8f 4f       	sbci	r24, 0xFF	; 255
    19e8:	9f 4f       	sbci	r25, 0xFF	; 255
    19ea:	af 4f       	sbci	r26, 0xFF	; 255
    19ec:	b1 e0       	ldi	r27, 0x01	; 1
    19ee:	3e d0       	rcall	.+124    	; 0x1a6c <__ultoa_invert+0x9c>
    19f0:	b4 e0       	ldi	r27, 0x04	; 4
    19f2:	3c d0       	rcall	.+120    	; 0x1a6c <__ultoa_invert+0x9c>
    19f4:	67 0f       	add	r22, r23
    19f6:	78 1f       	adc	r23, r24
    19f8:	89 1f       	adc	r24, r25
    19fa:	9a 1f       	adc	r25, r26
    19fc:	a1 1d       	adc	r26, r1
    19fe:	68 0f       	add	r22, r24
    1a00:	79 1f       	adc	r23, r25
    1a02:	8a 1f       	adc	r24, r26
    1a04:	91 1d       	adc	r25, r1
    1a06:	a1 1d       	adc	r26, r1
    1a08:	6a 0f       	add	r22, r26
    1a0a:	71 1d       	adc	r23, r1
    1a0c:	81 1d       	adc	r24, r1
    1a0e:	91 1d       	adc	r25, r1
    1a10:	a1 1d       	adc	r26, r1
    1a12:	20 d0       	rcall	.+64     	; 0x1a54 <__ultoa_invert+0x84>
    1a14:	09 f4       	brne	.+2      	; 0x1a18 <__ultoa_invert+0x48>
    1a16:	68 94       	set
    1a18:	3f 91       	pop	r19
    1a1a:	2a e0       	ldi	r18, 0x0A	; 10
    1a1c:	26 9f       	mul	r18, r22
    1a1e:	11 24       	eor	r1, r1
    1a20:	30 19       	sub	r19, r0
    1a22:	30 5d       	subi	r19, 0xD0	; 208
    1a24:	31 93       	st	Z+, r19
    1a26:	de f6       	brtc	.-74     	; 0x19de <__ultoa_invert+0xe>
    1a28:	cf 01       	movw	r24, r30
    1a2a:	08 95       	ret
    1a2c:	46 2f       	mov	r20, r22
    1a2e:	47 70       	andi	r20, 0x07	; 7
    1a30:	40 5d       	subi	r20, 0xD0	; 208
    1a32:	41 93       	st	Z+, r20
    1a34:	b3 e0       	ldi	r27, 0x03	; 3
    1a36:	0f d0       	rcall	.+30     	; 0x1a56 <__ultoa_invert+0x86>
    1a38:	c9 f7       	brne	.-14     	; 0x1a2c <__ultoa_invert+0x5c>
    1a3a:	f6 cf       	rjmp	.-20     	; 0x1a28 <__ultoa_invert+0x58>
    1a3c:	46 2f       	mov	r20, r22
    1a3e:	4f 70       	andi	r20, 0x0F	; 15
    1a40:	40 5d       	subi	r20, 0xD0	; 208
    1a42:	4a 33       	cpi	r20, 0x3A	; 58
    1a44:	18 f0       	brcs	.+6      	; 0x1a4c <__ultoa_invert+0x7c>
    1a46:	49 5d       	subi	r20, 0xD9	; 217
    1a48:	31 fd       	sbrc	r19, 1
    1a4a:	40 52       	subi	r20, 0x20	; 32
    1a4c:	41 93       	st	Z+, r20
    1a4e:	02 d0       	rcall	.+4      	; 0x1a54 <__ultoa_invert+0x84>
    1a50:	a9 f7       	brne	.-22     	; 0x1a3c <__ultoa_invert+0x6c>
    1a52:	ea cf       	rjmp	.-44     	; 0x1a28 <__ultoa_invert+0x58>
    1a54:	b4 e0       	ldi	r27, 0x04	; 4
    1a56:	a6 95       	lsr	r26
    1a58:	97 95       	ror	r25
    1a5a:	87 95       	ror	r24
    1a5c:	77 95       	ror	r23
    1a5e:	67 95       	ror	r22
    1a60:	ba 95       	dec	r27
    1a62:	c9 f7       	brne	.-14     	; 0x1a56 <__ultoa_invert+0x86>
    1a64:	00 97       	sbiw	r24, 0x00	; 0
    1a66:	61 05       	cpc	r22, r1
    1a68:	71 05       	cpc	r23, r1
    1a6a:	08 95       	ret
    1a6c:	9b 01       	movw	r18, r22
    1a6e:	ac 01       	movw	r20, r24
    1a70:	0a 2e       	mov	r0, r26
    1a72:	06 94       	lsr	r0
    1a74:	57 95       	ror	r21
    1a76:	47 95       	ror	r20
    1a78:	37 95       	ror	r19
    1a7a:	27 95       	ror	r18
    1a7c:	ba 95       	dec	r27
    1a7e:	c9 f7       	brne	.-14     	; 0x1a72 <__ultoa_invert+0xa2>
    1a80:	62 0f       	add	r22, r18
    1a82:	73 1f       	adc	r23, r19
    1a84:	84 1f       	adc	r24, r20
    1a86:	95 1f       	adc	r25, r21
    1a88:	a0 1d       	adc	r26, r0
    1a8a:	08 95       	ret

00001a8c <__prologue_saves__>:
    1a8c:	2f 92       	push	r2
    1a8e:	3f 92       	push	r3
    1a90:	4f 92       	push	r4
    1a92:	5f 92       	push	r5
    1a94:	6f 92       	push	r6
    1a96:	7f 92       	push	r7
    1a98:	8f 92       	push	r8
    1a9a:	9f 92       	push	r9
    1a9c:	af 92       	push	r10
    1a9e:	bf 92       	push	r11
    1aa0:	cf 92       	push	r12
    1aa2:	df 92       	push	r13
    1aa4:	ef 92       	push	r14
    1aa6:	ff 92       	push	r15
    1aa8:	0f 93       	push	r16
    1aaa:	1f 93       	push	r17
    1aac:	cf 93       	push	r28
    1aae:	df 93       	push	r29
    1ab0:	cd b7       	in	r28, 0x3d	; 61
    1ab2:	de b7       	in	r29, 0x3e	; 62
    1ab4:	ca 1b       	sub	r28, r26
    1ab6:	db 0b       	sbc	r29, r27
    1ab8:	0f b6       	in	r0, 0x3f	; 63
    1aba:	f8 94       	cli
    1abc:	de bf       	out	0x3e, r29	; 62
    1abe:	0f be       	out	0x3f, r0	; 63
    1ac0:	cd bf       	out	0x3d, r28	; 61
    1ac2:	09 94       	ijmp

00001ac4 <__epilogue_restores__>:
    1ac4:	2a 88       	ldd	r2, Y+18	; 0x12
    1ac6:	39 88       	ldd	r3, Y+17	; 0x11
    1ac8:	48 88       	ldd	r4, Y+16	; 0x10
    1aca:	5f 84       	ldd	r5, Y+15	; 0x0f
    1acc:	6e 84       	ldd	r6, Y+14	; 0x0e
    1ace:	7d 84       	ldd	r7, Y+13	; 0x0d
    1ad0:	8c 84       	ldd	r8, Y+12	; 0x0c
    1ad2:	9b 84       	ldd	r9, Y+11	; 0x0b
    1ad4:	aa 84       	ldd	r10, Y+10	; 0x0a
    1ad6:	b9 84       	ldd	r11, Y+9	; 0x09
    1ad8:	c8 84       	ldd	r12, Y+8	; 0x08
    1ada:	df 80       	ldd	r13, Y+7	; 0x07
    1adc:	ee 80       	ldd	r14, Y+6	; 0x06
    1ade:	fd 80       	ldd	r15, Y+5	; 0x05
    1ae0:	0c 81       	ldd	r16, Y+4	; 0x04
    1ae2:	1b 81       	ldd	r17, Y+3	; 0x03
    1ae4:	aa 81       	ldd	r26, Y+2	; 0x02
    1ae6:	b9 81       	ldd	r27, Y+1	; 0x01
    1ae8:	ce 0f       	add	r28, r30
    1aea:	d1 1d       	adc	r29, r1
    1aec:	0f b6       	in	r0, 0x3f	; 63
    1aee:	f8 94       	cli
    1af0:	de bf       	out	0x3e, r29	; 62
    1af2:	0f be       	out	0x3f, r0	; 63
    1af4:	cd bf       	out	0x3d, r28	; 61
    1af6:	ed 01       	movw	r28, r26
    1af8:	08 95       	ret

00001afa <_exit>:
    1afa:	f8 94       	cli

00001afc <__stop_program>:
    1afc:	ff cf       	rjmp	.-2      	; 0x1afc <__stop_program>
