
MyProject1.elf:     file format elf32-avr

Sections:
Idx Name          Size      VMA       LMA       File off  Algn
  0 .data         0000016e  00800100  00001a9c  00001b30  2**0
                  CONTENTS, ALLOC, LOAD, DATA
  1 .text         00001a9c  00000000  00000000  00000094  2**1
                  CONTENTS, ALLOC, LOAD, READONLY, CODE
  2 .bss          00000032  0080026e  0080026e  00001c9e  2**0
                  ALLOC
  3 .comment      0000005c  00000000  00000000  00001c9e  2**0
                  CONTENTS, READONLY
  4 .note.gnu.avr.deviceinfo 00000040  00000000  00000000  00001cfc  2**2
                  CONTENTS, READONLY
  5 .debug_aranges 00000118  00000000  00000000  00001d3c  2**0
                  CONTENTS, READONLY, DEBUGGING
  6 .debug_info   00001aa4  00000000  00000000  00001e54  2**0
                  CONTENTS, READONLY, DEBUGGING
  7 .debug_abbrev 00001174  00000000  00000000  000038f8  2**0
                  CONTENTS, READONLY, DEBUGGING
  8 .debug_line   00001680  00000000  00000000  00004a6c  2**0
                  CONTENTS, READONLY, DEBUGGING
  9 .debug_frame  00000298  00000000  00000000  000060ec  2**2
                  CONTENTS, READONLY, DEBUGGING
 10 .debug_str    0000b3f5  00000000  00000000  00006384  2**0
                  CONTENTS, READONLY, DEBUGGING
 11 .debug_loc    00000a72  00000000  00000000  00011779  2**0
                  CONTENTS, READONLY, DEBUGGING
 12 .debug_ranges 000000e0  00000000  00000000  000121eb  2**0
                  CONTENTS, READONLY, DEBUGGING
 13 .debug_macro  000047a9  00000000  00000000  000122cb  2**0
                  CONTENTS, READONLY, DEBUGGING

Disassembly of section .text:

00000000 <__vectors>:
       0:	48 c0       	rjmp	.+144    	; 0x92 <__ctors_end>
       2:	00 00       	nop
       4:	62 c0       	rjmp	.+196    	; 0xca <__bad_interrupt>
       6:	00 00       	nop
       8:	60 c0       	rjmp	.+192    	; 0xca <__bad_interrupt>
       a:	00 00       	nop
       c:	5e c0       	rjmp	.+188    	; 0xca <__bad_interrupt>
       e:	00 00       	nop
      10:	5c c0       	rjmp	.+184    	; 0xca <__bad_interrupt>
      12:	00 00       	nop
      14:	5a c0       	rjmp	.+180    	; 0xca <__bad_interrupt>
      16:	00 00       	nop
      18:	58 c0       	rjmp	.+176    	; 0xca <__bad_interrupt>
      1a:	00 00       	nop
      1c:	56 c0       	rjmp	.+172    	; 0xca <__bad_interrupt>
      1e:	00 00       	nop
      20:	54 c0       	rjmp	.+168    	; 0xca <__bad_interrupt>
      22:	00 00       	nop
      24:	52 c0       	rjmp	.+164    	; 0xca <__bad_interrupt>
      26:	00 00       	nop
      28:	50 c0       	rjmp	.+160    	; 0xca <__bad_interrupt>
      2a:	00 00       	nop
      2c:	4e c0       	rjmp	.+156    	; 0xca <__bad_interrupt>
      2e:	00 00       	nop
      30:	4c c0       	rjmp	.+152    	; 0xca <__bad_interrupt>
      32:	00 00       	nop
      34:	4a c0       	rjmp	.+148    	; 0xca <__bad_interrupt>
      36:	00 00       	nop
      38:	48 c0       	rjmp	.+144    	; 0xca <__bad_interrupt>
      3a:	00 00       	nop
      3c:	46 c0       	rjmp	.+140    	; 0xca <__bad_interrupt>
      3e:	00 00       	nop
      40:	44 c0       	rjmp	.+136    	; 0xca <__bad_interrupt>
      42:	00 00       	nop
      44:	42 c0       	rjmp	.+132    	; 0xca <__bad_interrupt>
      46:	00 00       	nop
      48:	40 c0       	rjmp	.+128    	; 0xca <__bad_interrupt>
      4a:	00 00       	nop
      4c:	3e c0       	rjmp	.+124    	; 0xca <__bad_interrupt>
      4e:	00 00       	nop
      50:	c1 c7       	rjmp	.+3970   	; 0xfd4 <__vector_20>
      52:	00 00       	nop
      54:	3a c0       	rjmp	.+116    	; 0xca <__bad_interrupt>
      56:	00 00       	nop
      58:	38 c0       	rjmp	.+112    	; 0xca <__bad_interrupt>
      5a:	00 00       	nop
      5c:	36 c0       	rjmp	.+108    	; 0xca <__bad_interrupt>
      5e:	00 00       	nop
      60:	34 c0       	rjmp	.+104    	; 0xca <__bad_interrupt>
      62:	00 00       	nop
      64:	32 c0       	rjmp	.+100    	; 0xca <__bad_interrupt>
      66:	00 00       	nop
      68:	30 c0       	rjmp	.+96     	; 0xca <__bad_interrupt>
      6a:	00 00       	nop
      6c:	2e c0       	rjmp	.+92     	; 0xca <__bad_interrupt>
      6e:	00 00       	nop
      70:	2c c0       	rjmp	.+88     	; 0xca <__bad_interrupt>
      72:	00 00       	nop
      74:	2a c0       	rjmp	.+84     	; 0xca <__bad_interrupt>
      76:	00 00       	nop
      78:	28 c0       	rjmp	.+80     	; 0xca <__bad_interrupt>
      7a:	00 00       	nop
      7c:	2c 01       	movw	r4, r24
      7e:	be 01       	movw	r22, r28
      80:	38 02       	muls	r19, r24
      82:	9c 02       	muls	r25, r28
      84:	d9 02       	muls	r29, r25
      86:	20 03       	mulsu	r18, r16
      88:	6b 03       	fmul	r22, r19
      8a:	f6 03       	fmuls	r23, r22
      8c:	8b 04       	cpc	r8, r11
      8e:	27 01       	movw	r4, r14
      90:	81 05       	cpc	r24, r1

00000092 <__ctors_end>:
      92:	11 24       	eor	r1, r1
      94:	1f be       	out	0x3f, r1	; 63
      96:	cf ef       	ldi	r28, 0xFF	; 255
      98:	d4 e0       	ldi	r29, 0x04	; 4
      9a:	de bf       	out	0x3e, r29	; 62
      9c:	cd bf       	out	0x3d, r28	; 61

0000009e <__do_copy_data>:
      9e:	12 e0       	ldi	r17, 0x02	; 2
      a0:	a0 e0       	ldi	r26, 0x00	; 0
      a2:	b1 e0       	ldi	r27, 0x01	; 1
      a4:	ec e9       	ldi	r30, 0x9C	; 156
      a6:	fa e1       	ldi	r31, 0x1A	; 26
      a8:	02 c0       	rjmp	.+4      	; 0xae <__do_copy_data+0x10>
      aa:	05 90       	lpm	r0, Z+
      ac:	0d 92       	st	X+, r0
      ae:	ae 36       	cpi	r26, 0x6E	; 110
      b0:	b1 07       	cpc	r27, r17
      b2:	d9 f7       	brne	.-10     	; 0xaa <__do_copy_data+0xc>

000000b4 <__do_clear_bss>:
      b4:	22 e0       	ldi	r18, 0x02	; 2
      b6:	ae e6       	ldi	r26, 0x6E	; 110
      b8:	b2 e0       	ldi	r27, 0x02	; 2
      ba:	01 c0       	rjmp	.+2      	; 0xbe <.do_clear_bss_start>

000000bc <.do_clear_bss_loop>:
      bc:	1d 92       	st	X+, r1

000000be <.do_clear_bss_start>:
      be:	a0 3a       	cpi	r26, 0xA0	; 160
      c0:	b2 07       	cpc	r27, r18
      c2:	e1 f7       	brne	.-8      	; 0xbc <.do_clear_bss_loop>
      c4:	7e d6       	rcall	.+3324   	; 0xdc2 <main>
      c6:	0c 94 4c 0d 	jmp	0x1a98	; 0x1a98 <_exit>

000000ca <__bad_interrupt>:
      ca:	9a cf       	rjmp	.-204    	; 0x0 <__vectors>

000000cc <can_clear_all_mob>:
uint8_t  mob_number;
/*
    uint8_t  data_index;
*/

    for (mob_number = 0; mob_number < NB_MOB; mob_number++)
      cc:	80 e0       	ldi	r24, 0x00	; 0
    {
        CANPAGE = (mob_number << 4);    //! Page index
      ce:	ad ee       	ldi	r26, 0xED	; 237
      d0:	b0 e0       	ldi	r27, 0x00	; 0
      d2:	98 2f       	mov	r25, r24
      d4:	92 95       	swap	r25
      d6:	90 7f       	andi	r25, 0xF0	; 240
      d8:	9c 93       	st	X, r25
        Can_clear_mob();                //! All MOb Registers=0
      da:	ee ee       	ldi	r30, 0xEE	; 238
      dc:	f0 e0       	ldi	r31, 0x00	; 0
      de:	11 92       	st	Z+, r1
      e0:	e8 3f       	cpi	r30, 0xF8	; 248
      e2:	f1 05       	cpc	r31, r1
      e4:	e1 f7       	brne	.-8      	; 0xde <can_clear_all_mob+0x12>
uint8_t  mob_number;
/*
    uint8_t  data_index;
*/

    for (mob_number = 0; mob_number < NB_MOB; mob_number++)
      e6:	8f 5f       	subi	r24, 0xFF	; 255
      e8:	86 30       	cpi	r24, 0x06	; 6
      ea:	99 f7       	brne	.-26     	; 0xd2 <can_clear_all_mob+0x6>
        {
            CANMSG = 0;                 //! MOb data FIFO
        }
*/
    }
}
      ec:	08 95       	ret

000000ee <can_get_mob_free>:
//------------------------------------------------------------------------------
uint8_t can_get_mob_free(void)
{
    uint8_t mob_number, page_saved;

    page_saved = CANPAGE;
      ee:	ed ee       	ldi	r30, 0xED	; 237
      f0:	f0 e0       	ldi	r31, 0x00	; 0
      f2:	20 81       	ld	r18, Z
    for (mob_number = 0; mob_number < NB_MOB; mob_number++)
    {
        Can_set_mob(mob_number);
      f4:	10 82       	st	Z, r1
        if ((CANCDMOB & 0xC0) == 0x00) //! Disable configuration
      f6:	80 91 ef 00 	lds	r24, 0x00EF	; 0x8000ef <__TEXT_REGION_LENGTH__+0x7e00ef>
      fa:	80 7c       	andi	r24, 0xC0	; 192
      fc:	69 f0       	breq	.+26     	; 0x118 <can_get_mob_free+0x2a>
      fe:	81 e0       	ldi	r24, 0x01	; 1
    uint8_t mob_number, page_saved;

    page_saved = CANPAGE;
    for (mob_number = 0; mob_number < NB_MOB; mob_number++)
    {
        Can_set_mob(mob_number);
     100:	ad ee       	ldi	r26, 0xED	; 237
     102:	b0 e0       	ldi	r27, 0x00	; 0
        if ((CANCDMOB & 0xC0) == 0x00) //! Disable configuration
     104:	ef ee       	ldi	r30, 0xEF	; 239
     106:	f0 e0       	ldi	r31, 0x00	; 0
    uint8_t mob_number, page_saved;

    page_saved = CANPAGE;
    for (mob_number = 0; mob_number < NB_MOB; mob_number++)
    {
        Can_set_mob(mob_number);
     108:	98 2f       	mov	r25, r24
     10a:	92 95       	swap	r25
     10c:	90 7f       	andi	r25, 0xF0	; 240
     10e:	9c 93       	st	X, r25
        if ((CANCDMOB & 0xC0) == 0x00) //! Disable configuration
     110:	90 81       	ld	r25, Z
     112:	90 7c       	andi	r25, 0xC0	; 192
     114:	29 f4       	brne	.+10     	; 0x120 <can_get_mob_free+0x32>
     116:	01 c0       	rjmp	.+2      	; 0x11a <can_get_mob_free+0x2c>
uint8_t can_get_mob_free(void)
{
    uint8_t mob_number, page_saved;

    page_saved = CANPAGE;
    for (mob_number = 0; mob_number < NB_MOB; mob_number++)
     118:	80 e0       	ldi	r24, 0x00	; 0
    {
        Can_set_mob(mob_number);
        if ((CANCDMOB & 0xC0) == 0x00) //! Disable configuration
        {
            CANPAGE = page_saved;
     11a:	20 93 ed 00 	sts	0x00ED, r18	; 0x8000ed <__TEXT_REGION_LENGTH__+0x7e00ed>
            return (mob_number);
     11e:	08 95       	ret
uint8_t can_get_mob_free(void)
{
    uint8_t mob_number, page_saved;

    page_saved = CANPAGE;
    for (mob_number = 0; mob_number < NB_MOB; mob_number++)
     120:	8f 5f       	subi	r24, 0xFF	; 255
     122:	86 30       	cpi	r24, 0x06	; 6
     124:	89 f7       	brne	.-30     	; 0x108 <can_get_mob_free+0x1a>
        {
            CANPAGE = page_saved;
            return (mob_number);
        }
    }
    CANPAGE = page_saved;
     126:	20 93 ed 00 	sts	0x00ED, r18	; 0x8000ed <__TEXT_REGION_LENGTH__+0x7e00ed>
    return (NO_MOB);
     12a:	8f ef       	ldi	r24, 0xFF	; 255
}
     12c:	08 95       	ret

0000012e <can_get_mob_status>:
uint8_t can_get_mob_status(void)
{
    uint8_t mob_status, canstmob_copy;

    // Test if MOb ENABLE or DISABLE
    if ((CANCDMOB & 0xC0) == 0x00) {return(MOB_DISABLE);}
     12e:	80 91 ef 00 	lds	r24, 0x00EF	; 0x8000ef <__TEXT_REGION_LENGTH__+0x7e00ef>
     132:	80 7c       	andi	r24, 0xC0	; 192
     134:	61 f0       	breq	.+24     	; 0x14e <can_get_mob_status+0x20>

    canstmob_copy = CANSTMOB; // Copy for test integrity
     136:	80 91 ee 00 	lds	r24, 0x00EE	; 0x8000ee <__TEXT_REGION_LENGTH__+0x7e00ee>

    // If MOb is ENABLE, test if MOb is COMPLETED
    // - MOb Status = 0x20 then MOB_RX_COMPLETED
    // - MOb Status = 0x40 then MOB_TX_COMPLETED
    // - MOb Status = 0xA0 then MOB_RX_COMPLETED_DLCW
    mob_status = canstmob_copy & ((1<<DLCW)|(1<<TXOK)|(1<<RXOK));
     13a:	98 2f       	mov	r25, r24
     13c:	90 7e       	andi	r25, 0xE0	; 224
    if ( (mob_status==MOB_RX_COMPLETED) ||   \
     13e:	90 32       	cpi	r25, 0x20	; 32
     140:	41 f0       	breq	.+16     	; 0x152 <can_get_mob_status+0x24>
     142:	90 34       	cpi	r25, 0x40	; 64
     144:	41 f0       	breq	.+16     	; 0x156 <can_get_mob_status+0x28>
         (mob_status==MOB_TX_COMPLETED) ||   \
     146:	90 3a       	cpi	r25, 0xA0	; 160
     148:	41 f0       	breq	.+16     	; 0x15a <can_get_mob_status+0x2c>
    // - MOb Status bit_0 = MOB_ACK_ERROR
    // - MOb Status bit_1 = MOB_FORM_ERROR
    // - MOb Status bit_2 = MOB_CRC_ERROR
    // - MOb Status bit_3 = MOB_STUFF_ERROR
    // - MOb Status bit_4 = MOB_BIT_ERROR
    mob_status = canstmob_copy & ERR_MOB_MSK;
     14a:	8f 71       	andi	r24, 0x1F	; 31
     14c:	08 95       	ret
uint8_t can_get_mob_status(void)
{
    uint8_t mob_status, canstmob_copy;

    // Test if MOb ENABLE or DISABLE
    if ((CANCDMOB & 0xC0) == 0x00) {return(MOB_DISABLE);}
     14e:	8f ef       	ldi	r24, 0xFF	; 255
     150:	08 95       	ret
    // - MOb Status = 0x40 then MOB_TX_COMPLETED
    // - MOb Status = 0xA0 then MOB_RX_COMPLETED_DLCW
    mob_status = canstmob_copy & ((1<<DLCW)|(1<<TXOK)|(1<<RXOK));
    if ( (mob_status==MOB_RX_COMPLETED) ||   \
         (mob_status==MOB_TX_COMPLETED) ||   \
         (mob_status==MOB_RX_COMPLETED_DLCW) ) { return(mob_status); }
     152:	80 e2       	ldi	r24, 0x20	; 32
     154:	08 95       	ret
     156:	80 e4       	ldi	r24, 0x40	; 64
     158:	08 95       	ret
     15a:	80 ea       	ldi	r24, 0xA0	; 160
    mob_status = canstmob_copy & ERR_MOB_MSK;
    if (mob_status != 0) { return(mob_status); }

    // If CANSTMOB = 0 then MOB_NOT_COMPLETED
    return(MOB_NOT_COMPLETED);
}
     15c:	08 95       	ret

0000015e <can_get_data>:
//! @param CAN message data address.
//!
//! @return none.
//------------------------------------------------------------------------------
void can_get_data(uint8_t* p_can_message_data)
{
     15e:	cf 93       	push	r28
     160:	df 93       	push	r29
     162:	bc 01       	movw	r22, r24
    uint8_t data_index;

    for (data_index = 0; data_index < (Can_get_dlc()); data_index++)
     164:	80 91 ef 00 	lds	r24, 0x00EF	; 0x8000ef <__TEXT_REGION_LENGTH__+0x7e00ef>
     168:	8f 70       	andi	r24, 0x0F	; 15
     16a:	99 f0       	breq	.+38     	; 0x192 <can_get_data+0x34>
     16c:	90 e0       	ldi	r25, 0x00	; 0
    {
        *(p_can_message_data + data_index) = CANMSG;
     16e:	ca ef       	ldi	r28, 0xFA	; 250
     170:	d0 e0       	ldi	r29, 0x00	; 0
//------------------------------------------------------------------------------
void can_get_data(uint8_t* p_can_message_data)
{
    uint8_t data_index;

    for (data_index = 0; data_index < (Can_get_dlc()); data_index++)
     172:	af ee       	ldi	r26, 0xEF	; 239
     174:	b0 e0       	ldi	r27, 0x00	; 0
    {
        *(p_can_message_data + data_index) = CANMSG;
     176:	28 81       	ld	r18, Y
     178:	fb 01       	movw	r30, r22
     17a:	e9 0f       	add	r30, r25
     17c:	f1 1d       	adc	r31, r1
     17e:	20 83       	st	Z, r18
//------------------------------------------------------------------------------
void can_get_data(uint8_t* p_can_message_data)
{
    uint8_t data_index;

    for (data_index = 0; data_index < (Can_get_dlc()); data_index++)
     180:	9f 5f       	subi	r25, 0xFF	; 255
     182:	2c 91       	ld	r18, X
     184:	49 2f       	mov	r20, r25
     186:	50 e0       	ldi	r21, 0x00	; 0
     188:	2f 70       	andi	r18, 0x0F	; 15
     18a:	30 e0       	ldi	r19, 0x00	; 0
     18c:	42 17       	cp	r20, r18
     18e:	53 07       	cpc	r21, r19
     190:	94 f3       	brlt	.-28     	; 0x176 <can_get_data+0x18>
    {
        *(p_can_message_data + data_index) = CANMSG;
    }
}
     192:	df 91       	pop	r29
     194:	cf 91       	pop	r28
     196:	08 95       	ret

00000198 <can_fixed_baudrate>:
//! @return Baudrate Status
//!         fixed = 1: baudrate performed
//------------------------------------------------------------------------------
uint8_t can_fixed_baudrate(uint8_t mode)
{
    Can_reset();
     198:	81 e0       	ldi	r24, 0x01	; 1
     19a:	80 93 d8 00 	sts	0x00D8, r24	; 0x8000d8 <__TEXT_REGION_LENGTH__+0x7e00d8>
    Can_conf_bt();
     19e:	8e e0       	ldi	r24, 0x0E	; 14
     1a0:	80 93 e2 00 	sts	0x00E2, r24	; 0x8000e2 <__TEXT_REGION_LENGTH__+0x7e00e2>
     1a4:	8c e0       	ldi	r24, 0x0C	; 12
     1a6:	80 93 e3 00 	sts	0x00E3, r24	; 0x8000e3 <__TEXT_REGION_LENGTH__+0x7e00e3>
     1aa:	87 e3       	ldi	r24, 0x37	; 55
     1ac:	80 93 e4 00 	sts	0x00E4, r24	; 0x8000e4 <__TEXT_REGION_LENGTH__+0x7e00e4>
    return 1;
}
     1b0:	81 e0       	ldi	r24, 0x01	; 1
     1b2:	08 95       	ret

000001b4 <can_init>:
//!         ==0: research of bit timing configuration failed
//!         ==1: baudrate performed 
//!
//------------------------------------------------------------------------------
uint8_t can_init(uint8_t mode)
{
     1b4:	f1 df       	rcall	.-30     	; 0x198 <can_fixed_baudrate>
     1b6:	88 23       	and	r24, r24
     1b8:	39 f0       	breq	.+14     	; 0x1c8 <can_init+0x14>
     1ba:	88 df       	rcall	.-240    	; 0xcc <can_clear_all_mob>
     1bc:	e8 ed       	ldi	r30, 0xD8	; 216
     1be:	f0 e0       	ldi	r31, 0x00	; 0
     1c0:	80 81       	ld	r24, Z
     1c2:	82 60       	ori	r24, 0x02	; 2
     1c4:	80 83       	st	Z, r24
     1c6:	81 e0       	ldi	r24, 0x01	; 1
     1c8:	08 95       	ret

000001ca <can_cmd>:
     1ca:	0f 93       	push	r16
     1cc:	1f 93       	push	r17
     1ce:	cf 93       	push	r28
     1d0:	df 93       	push	r29
     1d2:	00 d0       	rcall	.+0      	; 0x1d4 <can_cmd+0xa>
     1d4:	00 d0       	rcall	.+0      	; 0x1d6 <can_cmd+0xc>
     1d6:	cd b7       	in	r28, 0x3d	; 61
     1d8:	de b7       	in	r29, 0x3e	; 62
     1da:	fc 01       	movw	r30, r24
     1dc:	81 81       	ldd	r24, Z+1	; 0x01
     1de:	8c 30       	cpi	r24, 0x0C	; 12
     1e0:	99 f4       	brne	.+38     	; 0x208 <can_cmd+0x3e>
     1e2:	81 85       	ldd	r24, Z+9	; 0x09
     1e4:	80 36       	cpi	r24, 0x60	; 96
     1e6:	69 f4       	brne	.+26     	; 0x202 <can_cmd+0x38>
     1e8:	80 81       	ld	r24, Z
     1ea:	82 95       	swap	r24
     1ec:	80 7f       	andi	r24, 0xF0	; 240
     1ee:	80 93 ed 00 	sts	0x00ED, r24	; 0x8000ed <__TEXT_REGION_LENGTH__+0x7e00ed>
     1f2:	af ee       	ldi	r26, 0xEF	; 239
     1f4:	b0 e0       	ldi	r27, 0x00	; 0
     1f6:	8c 91       	ld	r24, X
     1f8:	8f 73       	andi	r24, 0x3F	; 63
     1fa:	8c 93       	st	X, r24
     1fc:	10 92 ee 00 	sts	0x00EE, r1	; 0x8000ee <__TEXT_REGION_LENGTH__+0x7e00ee>
     200:	10 82       	st	Z, r1
     202:	11 86       	std	Z+9, r1	; 0x09
     204:	80 e0       	ldi	r24, 0x00	; 0
     206:	36 c5       	rjmp	.+2668   	; 0xc74 <__stack+0x775>
     208:	8f 01       	movw	r16, r30
     20a:	71 df       	rcall	.-286    	; 0xee <can_get_mob_free>
     20c:	8f 3f       	cpi	r24, 0xFF	; 255
     20e:	09 f4       	brne	.+2      	; 0x212 <can_cmd+0x48>
     210:	2c c5       	rjmp	.+2648   	; 0xc6a <__stack+0x76b>
     212:	90 e6       	ldi	r25, 0x60	; 96
     214:	d8 01       	movw	r26, r16
     216:	19 96       	adiw	r26, 0x09	; 9
     218:	9c 93       	st	X, r25
     21a:	19 97       	sbiw	r26, 0x09	; 9
     21c:	8c 93       	st	X, r24
     21e:	82 95       	swap	r24
     220:	80 7f       	andi	r24, 0xF0	; 240
     222:	80 93 ed 00 	sts	0x00ED, r24	; 0x8000ed <__TEXT_REGION_LENGTH__+0x7e00ed>
     226:	ee ee       	ldi	r30, 0xEE	; 238
     228:	f0 e0       	ldi	r31, 0x00	; 0
     22a:	11 92       	st	Z+, r1
     22c:	e8 3f       	cpi	r30, 0xF8	; 248
     22e:	f1 05       	cpc	r31, r1
     230:	e1 f7       	brne	.-8      	; 0x22a <can_cmd+0x60>
     232:	d8 01       	movw	r26, r16
     234:	11 96       	adiw	r26, 0x01	; 1
     236:	ec 91       	ld	r30, X
     238:	8e 2f       	mov	r24, r30
     23a:	90 e0       	ldi	r25, 0x00	; 0
     23c:	fc 01       	movw	r30, r24
     23e:	31 97       	sbiw	r30, 0x01	; 1
     240:	eb 30       	cpi	r30, 0x0B	; 11
     242:	f1 05       	cpc	r31, r1
     244:	08 f0       	brcs	.+2      	; 0x248 <can_cmd+0x7e>
     246:	0d c5       	rjmp	.+2586   	; 0xc62 <__stack+0x763>
     248:	e2 5c       	subi	r30, 0xC2	; 194
     24a:	ff 4f       	sbci	r31, 0xFF	; 255
     24c:	75 c7       	rjmp	.+3818   	; 0x1138 <__tablejump2__>
     24e:	f8 01       	movw	r30, r16
     250:	86 81       	ldd	r24, Z+6	; 0x06
     252:	81 11       	cpse	r24, r1
     254:	f9 c3       	rjmp	.+2034   	; 0xa48 <__stack+0x549>
     256:	0a c4       	rjmp	.+2068   	; 0xa6c <__stack+0x56d>
     258:	d8 01       	movw	r26, r16
     25a:	1b 96       	adiw	r26, 0x0b	; 11
     25c:	8c 91       	ld	r24, X
     25e:	1b 97       	sbiw	r26, 0x0b	; 11
     260:	88 23       	and	r24, r24
     262:	e9 f1       	breq	.+122    	; 0x2de <can_cmd+0x114>
     264:	15 96       	adiw	r26, 0x05	; 5
     266:	8c 91       	ld	r24, X
     268:	15 97       	sbiw	r26, 0x05	; 5
     26a:	98 2f       	mov	r25, r24
     26c:	99 0f       	add	r25, r25
     26e:	99 0f       	add	r25, r25
     270:	99 0f       	add	r25, r25
     272:	14 96       	adiw	r26, 0x04	; 4
     274:	8c 91       	ld	r24, X
     276:	14 97       	sbiw	r26, 0x04	; 4
     278:	82 95       	swap	r24
     27a:	86 95       	lsr	r24
     27c:	87 70       	andi	r24, 0x07	; 7
     27e:	89 0f       	add	r24, r25
     280:	80 93 f3 00 	sts	0x00F3, r24	; 0x8000f3 <__TEXT_REGION_LENGTH__+0x7e00f3>
     284:	14 96       	adiw	r26, 0x04	; 4
     286:	8c 91       	ld	r24, X
     288:	14 97       	sbiw	r26, 0x04	; 4
     28a:	98 2f       	mov	r25, r24
     28c:	99 0f       	add	r25, r25
     28e:	99 0f       	add	r25, r25
     290:	99 0f       	add	r25, r25
     292:	13 96       	adiw	r26, 0x03	; 3
     294:	8c 91       	ld	r24, X
     296:	13 97       	sbiw	r26, 0x03	; 3
     298:	82 95       	swap	r24
     29a:	86 95       	lsr	r24
     29c:	87 70       	andi	r24, 0x07	; 7
     29e:	89 0f       	add	r24, r25
     2a0:	80 93 f2 00 	sts	0x00F2, r24	; 0x8000f2 <__TEXT_REGION_LENGTH__+0x7e00f2>
     2a4:	13 96       	adiw	r26, 0x03	; 3
     2a6:	8c 91       	ld	r24, X
     2a8:	13 97       	sbiw	r26, 0x03	; 3
     2aa:	98 2f       	mov	r25, r24
     2ac:	99 0f       	add	r25, r25
     2ae:	99 0f       	add	r25, r25
     2b0:	99 0f       	add	r25, r25
     2b2:	12 96       	adiw	r26, 0x02	; 2
     2b4:	8c 91       	ld	r24, X
     2b6:	12 97       	sbiw	r26, 0x02	; 2
     2b8:	82 95       	swap	r24
     2ba:	86 95       	lsr	r24
     2bc:	87 70       	andi	r24, 0x07	; 7
     2be:	89 0f       	add	r24, r25
     2c0:	80 93 f1 00 	sts	0x00F1, r24	; 0x8000f1 <__TEXT_REGION_LENGTH__+0x7e00f1>
     2c4:	12 96       	adiw	r26, 0x02	; 2
     2c6:	8c 91       	ld	r24, X
     2c8:	88 0f       	add	r24, r24
     2ca:	88 0f       	add	r24, r24
     2cc:	88 0f       	add	r24, r24
     2ce:	80 93 f0 00 	sts	0x00F0, r24	; 0x8000f0 <__TEXT_REGION_LENGTH__+0x7e00f0>
     2d2:	ef ee       	ldi	r30, 0xEF	; 239
     2d4:	f0 e0       	ldi	r31, 0x00	; 0
     2d6:	80 81       	ld	r24, Z
     2d8:	80 61       	ori	r24, 0x10	; 16
     2da:	80 83       	st	Z, r24
     2dc:	19 c0       	rjmp	.+50     	; 0x310 <can_cmd+0x146>
     2de:	f8 01       	movw	r30, r16
     2e0:	93 81       	ldd	r25, Z+3	; 0x03
     2e2:	82 81       	ldd	r24, Z+2	; 0x02
     2e4:	86 95       	lsr	r24
     2e6:	86 95       	lsr	r24
     2e8:	86 95       	lsr	r24
     2ea:	f0 e2       	ldi	r31, 0x20	; 32
     2ec:	9f 9f       	mul	r25, r31
     2ee:	80 0d       	add	r24, r0
     2f0:	11 24       	eor	r1, r1
     2f2:	80 93 f3 00 	sts	0x00F3, r24	; 0x8000f3 <__TEXT_REGION_LENGTH__+0x7e00f3>
     2f6:	d8 01       	movw	r26, r16
     2f8:	12 96       	adiw	r26, 0x02	; 2
     2fa:	8c 91       	ld	r24, X
     2fc:	82 95       	swap	r24
     2fe:	88 0f       	add	r24, r24
     300:	80 7e       	andi	r24, 0xE0	; 224
     302:	80 93 f2 00 	sts	0x00F2, r24	; 0x8000f2 <__TEXT_REGION_LENGTH__+0x7e00f2>
     306:	ef ee       	ldi	r30, 0xEF	; 239
     308:	f0 e0       	ldi	r31, 0x00	; 0
     30a:	80 81       	ld	r24, Z
     30c:	8f 7e       	andi	r24, 0xEF	; 239
     30e:	80 83       	st	Z, r24
     310:	f8 01       	movw	r30, r16
     312:	86 81       	ldd	r24, Z+6	; 0x06
     314:	88 23       	and	r24, r24
     316:	91 f0       	breq	.+36     	; 0x33c <can_cmd+0x172>
     318:	80 e0       	ldi	r24, 0x00	; 0
     31a:	2a ef       	ldi	r18, 0xFA	; 250
     31c:	30 e0       	ldi	r19, 0x00	; 0
     31e:	d8 01       	movw	r26, r16
     320:	17 96       	adiw	r26, 0x07	; 7
     322:	ed 91       	ld	r30, X+
     324:	fc 91       	ld	r31, X
     326:	18 97       	sbiw	r26, 0x08	; 8
     328:	e8 0f       	add	r30, r24
     32a:	f1 1d       	adc	r31, r1
     32c:	90 81       	ld	r25, Z
     32e:	f9 01       	movw	r30, r18
     330:	90 83       	st	Z, r25
     332:	8f 5f       	subi	r24, 0xFF	; 255
     334:	16 96       	adiw	r26, 0x06	; 6
     336:	9c 91       	ld	r25, X
     338:	89 17       	cp	r24, r25
     33a:	88 f3       	brcs	.-30     	; 0x31e <can_cmd+0x154>
     33c:	d8 01       	movw	r26, r16
     33e:	1a 96       	adiw	r26, 0x0a	; 10
     340:	8c 91       	ld	r24, X
     342:	88 23       	and	r24, r24
     344:	31 f0       	breq	.+12     	; 0x352 <can_cmd+0x188>
     346:	e0 ef       	ldi	r30, 0xF0	; 240
     348:	f0 e0       	ldi	r31, 0x00	; 0
     34a:	80 81       	ld	r24, Z
     34c:	84 60       	ori	r24, 0x04	; 4
     34e:	80 83       	st	Z, r24
     350:	05 c0       	rjmp	.+10     	; 0x35c <can_cmd+0x192>
     352:	e0 ef       	ldi	r30, 0xF0	; 240
     354:	f0 e0       	ldi	r31, 0x00	; 0
     356:	80 81       	ld	r24, Z
     358:	8b 7f       	andi	r24, 0xFB	; 251
     35a:	80 83       	st	Z, r24
     35c:	ef ee       	ldi	r30, 0xEF	; 239
     35e:	f0 e0       	ldi	r31, 0x00	; 0
     360:	90 81       	ld	r25, Z
     362:	d8 01       	movw	r26, r16
     364:	16 96       	adiw	r26, 0x06	; 6
     366:	8c 91       	ld	r24, X
     368:	89 2b       	or	r24, r25
     36a:	80 83       	st	Z, r24
     36c:	80 81       	ld	r24, Z
     36e:	8f 73       	andi	r24, 0x3F	; 63
     370:	80 83       	st	Z, r24
     372:	80 81       	ld	r24, Z
     374:	80 64       	ori	r24, 0x40	; 64
     376:	80 83       	st	Z, r24
     378:	80 e0       	ldi	r24, 0x00	; 0
     37a:	7c c4       	rjmp	.+2296   	; 0xc74 <__stack+0x775>
     37c:	f8 01       	movw	r30, r16
     37e:	83 85       	ldd	r24, Z+11	; 0x0b
     380:	88 23       	and	r24, r24
     382:	81 f1       	breq	.+96     	; 0x3e4 <can_cmd+0x21a>
     384:	85 81       	ldd	r24, Z+5	; 0x05
     386:	98 2f       	mov	r25, r24
     388:	99 0f       	add	r25, r25
     38a:	99 0f       	add	r25, r25
     38c:	99 0f       	add	r25, r25
     38e:	84 81       	ldd	r24, Z+4	; 0x04
     390:	82 95       	swap	r24
     392:	86 95       	lsr	r24
     394:	87 70       	andi	r24, 0x07	; 7
     396:	89 0f       	add	r24, r25
     398:	80 93 f3 00 	sts	0x00F3, r24	; 0x8000f3 <__TEXT_REGION_LENGTH__+0x7e00f3>
     39c:	84 81       	ldd	r24, Z+4	; 0x04
     39e:	98 2f       	mov	r25, r24
     3a0:	99 0f       	add	r25, r25
     3a2:	99 0f       	add	r25, r25
     3a4:	99 0f       	add	r25, r25
     3a6:	83 81       	ldd	r24, Z+3	; 0x03
     3a8:	82 95       	swap	r24
     3aa:	86 95       	lsr	r24
     3ac:	87 70       	andi	r24, 0x07	; 7
     3ae:	89 0f       	add	r24, r25
     3b0:	80 93 f2 00 	sts	0x00F2, r24	; 0x8000f2 <__TEXT_REGION_LENGTH__+0x7e00f2>
     3b4:	83 81       	ldd	r24, Z+3	; 0x03
     3b6:	98 2f       	mov	r25, r24
     3b8:	99 0f       	add	r25, r25
     3ba:	99 0f       	add	r25, r25
     3bc:	99 0f       	add	r25, r25
     3be:	82 81       	ldd	r24, Z+2	; 0x02
     3c0:	82 95       	swap	r24
     3c2:	86 95       	lsr	r24
     3c4:	87 70       	andi	r24, 0x07	; 7
     3c6:	89 0f       	add	r24, r25
     3c8:	80 93 f1 00 	sts	0x00F1, r24	; 0x8000f1 <__TEXT_REGION_LENGTH__+0x7e00f1>
     3cc:	82 81       	ldd	r24, Z+2	; 0x02
     3ce:	88 0f       	add	r24, r24
     3d0:	88 0f       	add	r24, r24
     3d2:	88 0f       	add	r24, r24
     3d4:	80 93 f0 00 	sts	0x00F0, r24	; 0x8000f0 <__TEXT_REGION_LENGTH__+0x7e00f0>
     3d8:	ef ee       	ldi	r30, 0xEF	; 239
     3da:	f0 e0       	ldi	r31, 0x00	; 0
     3dc:	80 81       	ld	r24, Z
     3de:	80 61       	ori	r24, 0x10	; 16
     3e0:	80 83       	st	Z, r24
     3e2:	17 c0       	rjmp	.+46     	; 0x412 <__LOCK_REGION_LENGTH__+0x12>
     3e4:	93 81       	ldd	r25, Z+3	; 0x03
     3e6:	82 81       	ldd	r24, Z+2	; 0x02
     3e8:	86 95       	lsr	r24
     3ea:	86 95       	lsr	r24
     3ec:	86 95       	lsr	r24
     3ee:	b0 e2       	ldi	r27, 0x20	; 32
     3f0:	9b 9f       	mul	r25, r27
     3f2:	80 0d       	add	r24, r0
     3f4:	11 24       	eor	r1, r1
     3f6:	80 93 f3 00 	sts	0x00F3, r24	; 0x8000f3 <__TEXT_REGION_LENGTH__+0x7e00f3>
     3fa:	f8 01       	movw	r30, r16
     3fc:	82 81       	ldd	r24, Z+2	; 0x02
     3fe:	82 95       	swap	r24
     400:	88 0f       	add	r24, r24
     402:	80 7e       	andi	r24, 0xE0	; 224
     404:	80 93 f2 00 	sts	0x00F2, r24	; 0x8000f2 <__TEXT_REGION_LENGTH__+0x7e00f2>
     408:	ef ee       	ldi	r30, 0xEF	; 239
     40a:	f0 e0       	ldi	r31, 0x00	; 0
     40c:	80 81       	ld	r24, Z
     40e:	8f 7e       	andi	r24, 0xEF	; 239
     410:	80 83       	st	Z, r24
     412:	d8 01       	movw	r26, r16
     414:	16 96       	adiw	r26, 0x06	; 6
     416:	8c 91       	ld	r24, X
     418:	88 23       	and	r24, r24
     41a:	91 f0       	breq	.+36     	; 0x440 <__LOCK_REGION_LENGTH__+0x40>
     41c:	80 e0       	ldi	r24, 0x00	; 0
     41e:	2a ef       	ldi	r18, 0xFA	; 250
     420:	30 e0       	ldi	r19, 0x00	; 0
     422:	d8 01       	movw	r26, r16
     424:	17 96       	adiw	r26, 0x07	; 7
     426:	ed 91       	ld	r30, X+
     428:	fc 91       	ld	r31, X
     42a:	18 97       	sbiw	r26, 0x08	; 8
     42c:	e8 0f       	add	r30, r24
     42e:	f1 1d       	adc	r31, r1
     430:	90 81       	ld	r25, Z
     432:	f9 01       	movw	r30, r18
     434:	90 83       	st	Z, r25
     436:	8f 5f       	subi	r24, 0xFF	; 255
     438:	16 96       	adiw	r26, 0x06	; 6
     43a:	9c 91       	ld	r25, X
     43c:	89 17       	cp	r24, r25
     43e:	88 f3       	brcs	.-30     	; 0x422 <__LOCK_REGION_LENGTH__+0x22>
     440:	d8 01       	movw	r26, r16
     442:	1a 96       	adiw	r26, 0x0a	; 10
     444:	1c 92       	st	X, r1
     446:	1a 97       	sbiw	r26, 0x0a	; 10
     448:	e0 ef       	ldi	r30, 0xF0	; 240
     44a:	f0 e0       	ldi	r31, 0x00	; 0
     44c:	80 81       	ld	r24, Z
     44e:	8b 7f       	andi	r24, 0xFB	; 251
     450:	80 83       	st	Z, r24
     452:	ef ee       	ldi	r30, 0xEF	; 239
     454:	f0 e0       	ldi	r31, 0x00	; 0
     456:	90 81       	ld	r25, Z
     458:	16 96       	adiw	r26, 0x06	; 6
     45a:	8c 91       	ld	r24, X
     45c:	89 2b       	or	r24, r25
     45e:	80 83       	st	Z, r24
     460:	80 81       	ld	r24, Z
     462:	8f 73       	andi	r24, 0x3F	; 63
     464:	80 83       	st	Z, r24
     466:	80 81       	ld	r24, Z
     468:	80 64       	ori	r24, 0x40	; 64
     46a:	80 83       	st	Z, r24
     46c:	80 e0       	ldi	r24, 0x00	; 0
     46e:	02 c4       	rjmp	.+2052   	; 0xc74 <__stack+0x775>
     470:	f8 01       	movw	r30, r16
     472:	83 85       	ldd	r24, Z+11	; 0x0b
     474:	88 23       	and	r24, r24
     476:	81 f1       	breq	.+96     	; 0x4d8 <__LOCK_REGION_LENGTH__+0xd8>
     478:	85 81       	ldd	r24, Z+5	; 0x05
     47a:	98 2f       	mov	r25, r24
     47c:	99 0f       	add	r25, r25
     47e:	99 0f       	add	r25, r25
     480:	99 0f       	add	r25, r25
     482:	84 81       	ldd	r24, Z+4	; 0x04
     484:	82 95       	swap	r24
     486:	86 95       	lsr	r24
     488:	87 70       	andi	r24, 0x07	; 7
     48a:	89 0f       	add	r24, r25
     48c:	80 93 f3 00 	sts	0x00F3, r24	; 0x8000f3 <__TEXT_REGION_LENGTH__+0x7e00f3>
     490:	84 81       	ldd	r24, Z+4	; 0x04
     492:	98 2f       	mov	r25, r24
     494:	99 0f       	add	r25, r25
     496:	99 0f       	add	r25, r25
     498:	99 0f       	add	r25, r25
     49a:	83 81       	ldd	r24, Z+3	; 0x03
     49c:	82 95       	swap	r24
     49e:	86 95       	lsr	r24
     4a0:	87 70       	andi	r24, 0x07	; 7
     4a2:	89 0f       	add	r24, r25
     4a4:	80 93 f2 00 	sts	0x00F2, r24	; 0x8000f2 <__TEXT_REGION_LENGTH__+0x7e00f2>
     4a8:	83 81       	ldd	r24, Z+3	; 0x03
     4aa:	98 2f       	mov	r25, r24
     4ac:	99 0f       	add	r25, r25
     4ae:	99 0f       	add	r25, r25
     4b0:	99 0f       	add	r25, r25
     4b2:	82 81       	ldd	r24, Z+2	; 0x02
     4b4:	82 95       	swap	r24
     4b6:	86 95       	lsr	r24
     4b8:	87 70       	andi	r24, 0x07	; 7
     4ba:	89 0f       	add	r24, r25
     4bc:	80 93 f1 00 	sts	0x00F1, r24	; 0x8000f1 <__TEXT_REGION_LENGTH__+0x7e00f1>
     4c0:	82 81       	ldd	r24, Z+2	; 0x02
     4c2:	88 0f       	add	r24, r24
     4c4:	88 0f       	add	r24, r24
     4c6:	88 0f       	add	r24, r24
     4c8:	80 93 f0 00 	sts	0x00F0, r24	; 0x8000f0 <__TEXT_REGION_LENGTH__+0x7e00f0>
     4cc:	ef ee       	ldi	r30, 0xEF	; 239
     4ce:	f0 e0       	ldi	r31, 0x00	; 0
     4d0:	80 81       	ld	r24, Z
     4d2:	80 61       	ori	r24, 0x10	; 16
     4d4:	80 83       	st	Z, r24
     4d6:	17 c0       	rjmp	.+46     	; 0x506 <__stack+0x7>
     4d8:	93 81       	ldd	r25, Z+3	; 0x03
     4da:	82 81       	ldd	r24, Z+2	; 0x02
     4dc:	86 95       	lsr	r24
     4de:	86 95       	lsr	r24
     4e0:	86 95       	lsr	r24
     4e2:	b0 e2       	ldi	r27, 0x20	; 32
     4e4:	9b 9f       	mul	r25, r27
     4e6:	80 0d       	add	r24, r0
     4e8:	11 24       	eor	r1, r1
     4ea:	80 93 f3 00 	sts	0x00F3, r24	; 0x8000f3 <__TEXT_REGION_LENGTH__+0x7e00f3>
     4ee:	f8 01       	movw	r30, r16
     4f0:	82 81       	ldd	r24, Z+2	; 0x02
     4f2:	82 95       	swap	r24
     4f4:	88 0f       	add	r24, r24
     4f6:	80 7e       	andi	r24, 0xE0	; 224
     4f8:	80 93 f2 00 	sts	0x00F2, r24	; 0x8000f2 <__TEXT_REGION_LENGTH__+0x7e00f2>
     4fc:	ef ee       	ldi	r30, 0xEF	; 239
     4fe:	f0 e0       	ldi	r31, 0x00	; 0
     500:	80 81       	ld	r24, Z
     502:	8f 7e       	andi	r24, 0xEF	; 239
     504:	80 83       	st	Z, r24
     506:	81 e0       	ldi	r24, 0x01	; 1
     508:	d8 01       	movw	r26, r16
     50a:	1a 96       	adiw	r26, 0x0a	; 10
     50c:	8c 93       	st	X, r24
     50e:	1a 97       	sbiw	r26, 0x0a	; 10
     510:	e0 ef       	ldi	r30, 0xF0	; 240
     512:	f0 e0       	ldi	r31, 0x00	; 0
     514:	80 81       	ld	r24, Z
     516:	84 60       	ori	r24, 0x04	; 4
     518:	80 83       	st	Z, r24
     51a:	ef ee       	ldi	r30, 0xEF	; 239
     51c:	f0 e0       	ldi	r31, 0x00	; 0
     51e:	90 81       	ld	r25, Z
     520:	16 96       	adiw	r26, 0x06	; 6
     522:	8c 91       	ld	r24, X
     524:	89 2b       	or	r24, r25
     526:	80 83       	st	Z, r24
     528:	80 81       	ld	r24, Z
     52a:	8f 73       	andi	r24, 0x3F	; 63
     52c:	80 83       	st	Z, r24
     52e:	80 81       	ld	r24, Z
     530:	80 64       	ori	r24, 0x40	; 64
     532:	80 83       	st	Z, r24
     534:	80 e0       	ldi	r24, 0x00	; 0
     536:	9e c3       	rjmp	.+1852   	; 0xc74 <__stack+0x775>
     538:	19 82       	std	Y+1, r1	; 0x01
     53a:	1a 82       	std	Y+2, r1	; 0x02
     53c:	1b 82       	std	Y+3, r1	; 0x03
     53e:	1c 82       	std	Y+4, r1	; 0x04
     540:	10 92 f7 00 	sts	0x00F7, r1	; 0x8000f7 <__TEXT_REGION_LENGTH__+0x7e00f7>
     544:	8b 81       	ldd	r24, Y+3	; 0x03
     546:	98 2f       	mov	r25, r24
     548:	99 0f       	add	r25, r25
     54a:	99 0f       	add	r25, r25
     54c:	99 0f       	add	r25, r25
     54e:	8a 81       	ldd	r24, Y+2	; 0x02
     550:	82 95       	swap	r24
     552:	86 95       	lsr	r24
     554:	87 70       	andi	r24, 0x07	; 7
     556:	89 0f       	add	r24, r25
     558:	80 93 f6 00 	sts	0x00F6, r24	; 0x8000f6 <__TEXT_REGION_LENGTH__+0x7e00f6>
     55c:	8a 81       	ldd	r24, Y+2	; 0x02
     55e:	98 2f       	mov	r25, r24
     560:	99 0f       	add	r25, r25
     562:	99 0f       	add	r25, r25
     564:	99 0f       	add	r25, r25
     566:	89 81       	ldd	r24, Y+1	; 0x01
     568:	82 95       	swap	r24
     56a:	86 95       	lsr	r24
     56c:	87 70       	andi	r24, 0x07	; 7
     56e:	89 0f       	add	r24, r25
     570:	80 93 f5 00 	sts	0x00F5, r24	; 0x8000f5 <__TEXT_REGION_LENGTH__+0x7e00f5>
     574:	89 81       	ldd	r24, Y+1	; 0x01
     576:	88 0f       	add	r24, r24
     578:	88 0f       	add	r24, r24
     57a:	88 0f       	add	r24, r24
     57c:	24 ef       	ldi	r18, 0xF4	; 244
     57e:	30 e0       	ldi	r19, 0x00	; 0
     580:	f9 01       	movw	r30, r18
     582:	80 83       	st	Z, r24
     584:	ef ee       	ldi	r30, 0xEF	; 239
     586:	f0 e0       	ldi	r31, 0x00	; 0
     588:	90 81       	ld	r25, Z
     58a:	d8 01       	movw	r26, r16
     58c:	16 96       	adiw	r26, 0x06	; 6
     58e:	8c 91       	ld	r24, X
     590:	89 2b       	or	r24, r25
     592:	80 83       	st	Z, r24
     594:	d9 01       	movw	r26, r18
     596:	8c 91       	ld	r24, X
     598:	8b 7f       	andi	r24, 0xFB	; 251
     59a:	8c 93       	st	X, r24
     59c:	8c 91       	ld	r24, X
     59e:	8e 7f       	andi	r24, 0xFE	; 254
     5a0:	8c 93       	st	X, r24
     5a2:	80 81       	ld	r24, Z
     5a4:	8f 73       	andi	r24, 0x3F	; 63
     5a6:	80 83       	st	Z, r24
     5a8:	80 81       	ld	r24, Z
     5aa:	80 68       	ori	r24, 0x80	; 128
     5ac:	80 83       	st	Z, r24
     5ae:	80 e0       	ldi	r24, 0x00	; 0
     5b0:	61 c3       	rjmp	.+1730   	; 0xc74 <__stack+0x775>
     5b2:	19 82       	std	Y+1, r1	; 0x01
     5b4:	1a 82       	std	Y+2, r1	; 0x02
     5b6:	1b 82       	std	Y+3, r1	; 0x03
     5b8:	1c 82       	std	Y+4, r1	; 0x04
     5ba:	10 92 f7 00 	sts	0x00F7, r1	; 0x8000f7 <__TEXT_REGION_LENGTH__+0x7e00f7>
     5be:	8b 81       	ldd	r24, Y+3	; 0x03
     5c0:	98 2f       	mov	r25, r24
     5c2:	99 0f       	add	r25, r25
     5c4:	99 0f       	add	r25, r25
     5c6:	99 0f       	add	r25, r25
     5c8:	8a 81       	ldd	r24, Y+2	; 0x02
     5ca:	82 95       	swap	r24
     5cc:	86 95       	lsr	r24
     5ce:	87 70       	andi	r24, 0x07	; 7
     5d0:	89 0f       	add	r24, r25
     5d2:	80 93 f6 00 	sts	0x00F6, r24	; 0x8000f6 <__TEXT_REGION_LENGTH__+0x7e00f6>
     5d6:	8a 81       	ldd	r24, Y+2	; 0x02
     5d8:	98 2f       	mov	r25, r24
     5da:	99 0f       	add	r25, r25
     5dc:	99 0f       	add	r25, r25
     5de:	99 0f       	add	r25, r25
     5e0:	89 81       	ldd	r24, Y+1	; 0x01
     5e2:	82 95       	swap	r24
     5e4:	86 95       	lsr	r24
     5e6:	87 70       	andi	r24, 0x07	; 7
     5e8:	89 0f       	add	r24, r25
     5ea:	80 93 f5 00 	sts	0x00F5, r24	; 0x8000f5 <__TEXT_REGION_LENGTH__+0x7e00f5>
     5ee:	89 81       	ldd	r24, Y+1	; 0x01
     5f0:	88 0f       	add	r24, r24
     5f2:	88 0f       	add	r24, r24
     5f4:	88 0f       	add	r24, r24
     5f6:	44 ef       	ldi	r20, 0xF4	; 244
     5f8:	50 e0       	ldi	r21, 0x00	; 0
     5fa:	fa 01       	movw	r30, r20
     5fc:	80 83       	st	Z, r24
     5fe:	ef ee       	ldi	r30, 0xEF	; 239
     600:	f0 e0       	ldi	r31, 0x00	; 0
     602:	90 81       	ld	r25, Z
     604:	d8 01       	movw	r26, r16
     606:	16 96       	adiw	r26, 0x06	; 6
     608:	8c 91       	ld	r24, X
     60a:	16 97       	sbiw	r26, 0x06	; 6
     60c:	89 2b       	or	r24, r25
     60e:	80 83       	st	Z, r24
     610:	1a 96       	adiw	r26, 0x0a	; 10
     612:	1c 92       	st	X, r1
     614:	da 01       	movw	r26, r20
     616:	8c 91       	ld	r24, X
     618:	84 60       	ori	r24, 0x04	; 4
     61a:	8c 93       	st	X, r24
     61c:	20 ef       	ldi	r18, 0xF0	; 240
     61e:	30 e0       	ldi	r19, 0x00	; 0
     620:	d9 01       	movw	r26, r18
     622:	8c 91       	ld	r24, X
     624:	8b 7f       	andi	r24, 0xFB	; 251
     626:	8c 93       	st	X, r24
     628:	da 01       	movw	r26, r20
     62a:	8c 91       	ld	r24, X
     62c:	8e 7f       	andi	r24, 0xFE	; 254
     62e:	8c 93       	st	X, r24
     630:	80 81       	ld	r24, Z
     632:	8f 73       	andi	r24, 0x3F	; 63
     634:	80 83       	st	Z, r24
     636:	80 81       	ld	r24, Z
     638:	80 68       	ori	r24, 0x80	; 128
     63a:	80 83       	st	Z, r24
     63c:	80 e0       	ldi	r24, 0x00	; 0
     63e:	1a c3       	rjmp	.+1588   	; 0xc74 <__stack+0x775>
     640:	19 82       	std	Y+1, r1	; 0x01
     642:	1a 82       	std	Y+2, r1	; 0x02
     644:	1b 82       	std	Y+3, r1	; 0x03
     646:	1c 82       	std	Y+4, r1	; 0x04
     648:	10 92 f7 00 	sts	0x00F7, r1	; 0x8000f7 <__TEXT_REGION_LENGTH__+0x7e00f7>
     64c:	8b 81       	ldd	r24, Y+3	; 0x03
     64e:	98 2f       	mov	r25, r24
     650:	99 0f       	add	r25, r25
     652:	99 0f       	add	r25, r25
     654:	99 0f       	add	r25, r25
     656:	8a 81       	ldd	r24, Y+2	; 0x02
     658:	82 95       	swap	r24
     65a:	86 95       	lsr	r24
     65c:	87 70       	andi	r24, 0x07	; 7
     65e:	89 0f       	add	r24, r25
     660:	80 93 f6 00 	sts	0x00F6, r24	; 0x8000f6 <__TEXT_REGION_LENGTH__+0x7e00f6>
     664:	8a 81       	ldd	r24, Y+2	; 0x02
     666:	98 2f       	mov	r25, r24
     668:	99 0f       	add	r25, r25
     66a:	99 0f       	add	r25, r25
     66c:	99 0f       	add	r25, r25
     66e:	89 81       	ldd	r24, Y+1	; 0x01
     670:	82 95       	swap	r24
     672:	86 95       	lsr	r24
     674:	87 70       	andi	r24, 0x07	; 7
     676:	89 0f       	add	r24, r25
     678:	80 93 f5 00 	sts	0x00F5, r24	; 0x8000f5 <__TEXT_REGION_LENGTH__+0x7e00f5>
     67c:	89 81       	ldd	r24, Y+1	; 0x01
     67e:	88 0f       	add	r24, r24
     680:	88 0f       	add	r24, r24
     682:	88 0f       	add	r24, r24
     684:	44 ef       	ldi	r20, 0xF4	; 244
     686:	50 e0       	ldi	r21, 0x00	; 0
     688:	fa 01       	movw	r30, r20
     68a:	80 83       	st	Z, r24
     68c:	ef ee       	ldi	r30, 0xEF	; 239
     68e:	f0 e0       	ldi	r31, 0x00	; 0
     690:	90 81       	ld	r25, Z
     692:	d8 01       	movw	r26, r16
     694:	16 96       	adiw	r26, 0x06	; 6
     696:	8c 91       	ld	r24, X
     698:	16 97       	sbiw	r26, 0x06	; 6
     69a:	89 2b       	or	r24, r25
     69c:	80 83       	st	Z, r24
     69e:	81 e0       	ldi	r24, 0x01	; 1
     6a0:	1a 96       	adiw	r26, 0x0a	; 10
     6a2:	8c 93       	st	X, r24
     6a4:	da 01       	movw	r26, r20
     6a6:	8c 91       	ld	r24, X
     6a8:	84 60       	ori	r24, 0x04	; 4
     6aa:	8c 93       	st	X, r24
     6ac:	20 ef       	ldi	r18, 0xF0	; 240
     6ae:	30 e0       	ldi	r19, 0x00	; 0
     6b0:	d9 01       	movw	r26, r18
     6b2:	8c 91       	ld	r24, X
     6b4:	84 60       	ori	r24, 0x04	; 4
     6b6:	8c 93       	st	X, r24
     6b8:	80 81       	ld	r24, Z
     6ba:	8f 7d       	andi	r24, 0xDF	; 223
     6bc:	80 83       	st	Z, r24
     6be:	da 01       	movw	r26, r20
     6c0:	8c 91       	ld	r24, X
     6c2:	8e 7f       	andi	r24, 0xFE	; 254
     6c4:	8c 93       	st	X, r24
     6c6:	80 81       	ld	r24, Z
     6c8:	8f 73       	andi	r24, 0x3F	; 63
     6ca:	80 83       	st	Z, r24
     6cc:	80 81       	ld	r24, Z
     6ce:	80 68       	ori	r24, 0x80	; 128
     6d0:	80 83       	st	Z, r24
     6d2:	80 e0       	ldi	r24, 0x00	; 0
     6d4:	cf c2       	rjmp	.+1438   	; 0xc74 <__stack+0x775>
     6d6:	f8 01       	movw	r30, r16
     6d8:	83 85       	ldd	r24, Z+11	; 0x0b
     6da:	88 23       	and	r24, r24
     6dc:	81 f1       	breq	.+96     	; 0x73e <__stack+0x23f>
     6de:	85 81       	ldd	r24, Z+5	; 0x05
     6e0:	98 2f       	mov	r25, r24
     6e2:	99 0f       	add	r25, r25
     6e4:	99 0f       	add	r25, r25
     6e6:	99 0f       	add	r25, r25
     6e8:	84 81       	ldd	r24, Z+4	; 0x04
     6ea:	82 95       	swap	r24
     6ec:	86 95       	lsr	r24
     6ee:	87 70       	andi	r24, 0x07	; 7
     6f0:	89 0f       	add	r24, r25
     6f2:	80 93 f3 00 	sts	0x00F3, r24	; 0x8000f3 <__TEXT_REGION_LENGTH__+0x7e00f3>
     6f6:	84 81       	ldd	r24, Z+4	; 0x04
     6f8:	98 2f       	mov	r25, r24
     6fa:	99 0f       	add	r25, r25
     6fc:	99 0f       	add	r25, r25
     6fe:	99 0f       	add	r25, r25
     700:	83 81       	ldd	r24, Z+3	; 0x03
     702:	82 95       	swap	r24
     704:	86 95       	lsr	r24
     706:	87 70       	andi	r24, 0x07	; 7
     708:	89 0f       	add	r24, r25
     70a:	80 93 f2 00 	sts	0x00F2, r24	; 0x8000f2 <__TEXT_REGION_LENGTH__+0x7e00f2>
     70e:	83 81       	ldd	r24, Z+3	; 0x03
     710:	98 2f       	mov	r25, r24
     712:	99 0f       	add	r25, r25
     714:	99 0f       	add	r25, r25
     716:	99 0f       	add	r25, r25
     718:	82 81       	ldd	r24, Z+2	; 0x02
     71a:	82 95       	swap	r24
     71c:	86 95       	lsr	r24
     71e:	87 70       	andi	r24, 0x07	; 7
     720:	89 0f       	add	r24, r25
     722:	80 93 f1 00 	sts	0x00F1, r24	; 0x8000f1 <__TEXT_REGION_LENGTH__+0x7e00f1>
     726:	82 81       	ldd	r24, Z+2	; 0x02
     728:	88 0f       	add	r24, r24
     72a:	88 0f       	add	r24, r24
     72c:	88 0f       	add	r24, r24
     72e:	80 93 f0 00 	sts	0x00F0, r24	; 0x8000f0 <__TEXT_REGION_LENGTH__+0x7e00f0>
     732:	ef ee       	ldi	r30, 0xEF	; 239
     734:	f0 e0       	ldi	r31, 0x00	; 0
     736:	80 81       	ld	r24, Z
     738:	80 61       	ori	r24, 0x10	; 16
     73a:	80 83       	st	Z, r24
     73c:	17 c0       	rjmp	.+46     	; 0x76c <__stack+0x26d>
     73e:	93 81       	ldd	r25, Z+3	; 0x03
     740:	82 81       	ldd	r24, Z+2	; 0x02
     742:	86 95       	lsr	r24
     744:	86 95       	lsr	r24
     746:	86 95       	lsr	r24
     748:	b0 e2       	ldi	r27, 0x20	; 32
     74a:	9b 9f       	mul	r25, r27
     74c:	80 0d       	add	r24, r0
     74e:	11 24       	eor	r1, r1
     750:	80 93 f3 00 	sts	0x00F3, r24	; 0x8000f3 <__TEXT_REGION_LENGTH__+0x7e00f3>
     754:	f8 01       	movw	r30, r16
     756:	82 81       	ldd	r24, Z+2	; 0x02
     758:	82 95       	swap	r24
     75a:	88 0f       	add	r24, r24
     75c:	80 7e       	andi	r24, 0xE0	; 224
     75e:	80 93 f2 00 	sts	0x00F2, r24	; 0x8000f2 <__TEXT_REGION_LENGTH__+0x7e00f2>
     762:	ef ee       	ldi	r30, 0xEF	; 239
     764:	f0 e0       	ldi	r31, 0x00	; 0
     766:	80 81       	ld	r24, Z
     768:	8f 7e       	andi	r24, 0xEF	; 239
     76a:	80 83       	st	Z, r24
     76c:	8f ef       	ldi	r24, 0xFF	; 255
     76e:	9f ef       	ldi	r25, 0xFF	; 255
     770:	dc 01       	movw	r26, r24
     772:	89 83       	std	Y+1, r24	; 0x01
     774:	9a 83       	std	Y+2, r25	; 0x02
     776:	ab 83       	std	Y+3, r26	; 0x03
     778:	bc 83       	std	Y+4, r27	; 0x04
     77a:	80 93 f7 00 	sts	0x00F7, r24	; 0x8000f7 <__TEXT_REGION_LENGTH__+0x7e00f7>
     77e:	8b 81       	ldd	r24, Y+3	; 0x03
     780:	98 2f       	mov	r25, r24
     782:	99 0f       	add	r25, r25
     784:	99 0f       	add	r25, r25
     786:	99 0f       	add	r25, r25
     788:	8a 81       	ldd	r24, Y+2	; 0x02
     78a:	82 95       	swap	r24
     78c:	86 95       	lsr	r24
     78e:	87 70       	andi	r24, 0x07	; 7
     790:	89 0f       	add	r24, r25
     792:	80 93 f6 00 	sts	0x00F6, r24	; 0x8000f6 <__TEXT_REGION_LENGTH__+0x7e00f6>
     796:	8a 81       	ldd	r24, Y+2	; 0x02
     798:	98 2f       	mov	r25, r24
     79a:	99 0f       	add	r25, r25
     79c:	99 0f       	add	r25, r25
     79e:	99 0f       	add	r25, r25
     7a0:	89 81       	ldd	r24, Y+1	; 0x01
     7a2:	82 95       	swap	r24
     7a4:	86 95       	lsr	r24
     7a6:	87 70       	andi	r24, 0x07	; 7
     7a8:	89 0f       	add	r24, r25
     7aa:	80 93 f5 00 	sts	0x00F5, r24	; 0x8000f5 <__TEXT_REGION_LENGTH__+0x7e00f5>
     7ae:	89 81       	ldd	r24, Y+1	; 0x01
     7b0:	88 0f       	add	r24, r24
     7b2:	88 0f       	add	r24, r24
     7b4:	88 0f       	add	r24, r24
     7b6:	24 ef       	ldi	r18, 0xF4	; 244
     7b8:	30 e0       	ldi	r19, 0x00	; 0
     7ba:	d9 01       	movw	r26, r18
     7bc:	8c 93       	st	X, r24
     7be:	ef ee       	ldi	r30, 0xEF	; 239
     7c0:	f0 e0       	ldi	r31, 0x00	; 0
     7c2:	90 81       	ld	r25, Z
     7c4:	d8 01       	movw	r26, r16
     7c6:	16 96       	adiw	r26, 0x06	; 6
     7c8:	8c 91       	ld	r24, X
     7ca:	89 2b       	or	r24, r25
     7cc:	80 83       	st	Z, r24
     7ce:	d9 01       	movw	r26, r18
     7d0:	8c 91       	ld	r24, X
     7d2:	8b 7f       	andi	r24, 0xFB	; 251
     7d4:	8c 93       	st	X, r24
     7d6:	8c 91       	ld	r24, X
     7d8:	81 60       	ori	r24, 0x01	; 1
     7da:	8c 93       	st	X, r24
     7dc:	80 81       	ld	r24, Z
     7de:	8f 73       	andi	r24, 0x3F	; 63
     7e0:	80 83       	st	Z, r24
     7e2:	80 81       	ld	r24, Z
     7e4:	80 68       	ori	r24, 0x80	; 128
     7e6:	80 83       	st	Z, r24
     7e8:	80 e0       	ldi	r24, 0x00	; 0
     7ea:	44 c2       	rjmp	.+1160   	; 0xc74 <__stack+0x775>
     7ec:	f8 01       	movw	r30, r16
     7ee:	83 85       	ldd	r24, Z+11	; 0x0b
     7f0:	88 23       	and	r24, r24
     7f2:	81 f1       	breq	.+96     	; 0x854 <__stack+0x355>
     7f4:	85 81       	ldd	r24, Z+5	; 0x05
     7f6:	98 2f       	mov	r25, r24
     7f8:	99 0f       	add	r25, r25
     7fa:	99 0f       	add	r25, r25
     7fc:	99 0f       	add	r25, r25
     7fe:	84 81       	ldd	r24, Z+4	; 0x04
     800:	82 95       	swap	r24
     802:	86 95       	lsr	r24
     804:	87 70       	andi	r24, 0x07	; 7
     806:	89 0f       	add	r24, r25
     808:	80 93 f3 00 	sts	0x00F3, r24	; 0x8000f3 <__TEXT_REGION_LENGTH__+0x7e00f3>
     80c:	84 81       	ldd	r24, Z+4	; 0x04
     80e:	98 2f       	mov	r25, r24
     810:	99 0f       	add	r25, r25
     812:	99 0f       	add	r25, r25
     814:	99 0f       	add	r25, r25
     816:	83 81       	ldd	r24, Z+3	; 0x03
     818:	82 95       	swap	r24
     81a:	86 95       	lsr	r24
     81c:	87 70       	andi	r24, 0x07	; 7
     81e:	89 0f       	add	r24, r25
     820:	80 93 f2 00 	sts	0x00F2, r24	; 0x8000f2 <__TEXT_REGION_LENGTH__+0x7e00f2>
     824:	83 81       	ldd	r24, Z+3	; 0x03
     826:	98 2f       	mov	r25, r24
     828:	99 0f       	add	r25, r25
     82a:	99 0f       	add	r25, r25
     82c:	99 0f       	add	r25, r25
     82e:	82 81       	ldd	r24, Z+2	; 0x02
     830:	82 95       	swap	r24
     832:	86 95       	lsr	r24
     834:	87 70       	andi	r24, 0x07	; 7
     836:	89 0f       	add	r24, r25
     838:	80 93 f1 00 	sts	0x00F1, r24	; 0x8000f1 <__TEXT_REGION_LENGTH__+0x7e00f1>
     83c:	82 81       	ldd	r24, Z+2	; 0x02
     83e:	88 0f       	add	r24, r24
     840:	88 0f       	add	r24, r24
     842:	88 0f       	add	r24, r24
     844:	80 93 f0 00 	sts	0x00F0, r24	; 0x8000f0 <__TEXT_REGION_LENGTH__+0x7e00f0>
     848:	ef ee       	ldi	r30, 0xEF	; 239
     84a:	f0 e0       	ldi	r31, 0x00	; 0
     84c:	80 81       	ld	r24, Z
     84e:	80 61       	ori	r24, 0x10	; 16
     850:	80 83       	st	Z, r24
     852:	17 c0       	rjmp	.+46     	; 0x882 <__stack+0x383>
     854:	93 81       	ldd	r25, Z+3	; 0x03
     856:	82 81       	ldd	r24, Z+2	; 0x02
     858:	86 95       	lsr	r24
     85a:	86 95       	lsr	r24
     85c:	86 95       	lsr	r24
     85e:	b0 e2       	ldi	r27, 0x20	; 32
     860:	9b 9f       	mul	r25, r27
     862:	80 0d       	add	r24, r0
     864:	11 24       	eor	r1, r1
     866:	80 93 f3 00 	sts	0x00F3, r24	; 0x8000f3 <__TEXT_REGION_LENGTH__+0x7e00f3>
     86a:	f8 01       	movw	r30, r16
     86c:	82 81       	ldd	r24, Z+2	; 0x02
     86e:	82 95       	swap	r24
     870:	88 0f       	add	r24, r24
     872:	80 7e       	andi	r24, 0xE0	; 224
     874:	80 93 f2 00 	sts	0x00F2, r24	; 0x8000f2 <__TEXT_REGION_LENGTH__+0x7e00f2>
     878:	ef ee       	ldi	r30, 0xEF	; 239
     87a:	f0 e0       	ldi	r31, 0x00	; 0
     87c:	80 81       	ld	r24, Z
     87e:	8f 7e       	andi	r24, 0xEF	; 239
     880:	80 83       	st	Z, r24
     882:	8f ef       	ldi	r24, 0xFF	; 255
     884:	9f ef       	ldi	r25, 0xFF	; 255
     886:	dc 01       	movw	r26, r24
     888:	89 83       	std	Y+1, r24	; 0x01
     88a:	9a 83       	std	Y+2, r25	; 0x02
     88c:	ab 83       	std	Y+3, r26	; 0x03
     88e:	bc 83       	std	Y+4, r27	; 0x04
     890:	80 93 f7 00 	sts	0x00F7, r24	; 0x8000f7 <__TEXT_REGION_LENGTH__+0x7e00f7>
     894:	8b 81       	ldd	r24, Y+3	; 0x03
     896:	98 2f       	mov	r25, r24
     898:	99 0f       	add	r25, r25
     89a:	99 0f       	add	r25, r25
     89c:	99 0f       	add	r25, r25
     89e:	8a 81       	ldd	r24, Y+2	; 0x02
     8a0:	82 95       	swap	r24
     8a2:	86 95       	lsr	r24
     8a4:	87 70       	andi	r24, 0x07	; 7
     8a6:	89 0f       	add	r24, r25
     8a8:	80 93 f6 00 	sts	0x00F6, r24	; 0x8000f6 <__TEXT_REGION_LENGTH__+0x7e00f6>
     8ac:	8a 81       	ldd	r24, Y+2	; 0x02
     8ae:	98 2f       	mov	r25, r24
     8b0:	99 0f       	add	r25, r25
     8b2:	99 0f       	add	r25, r25
     8b4:	99 0f       	add	r25, r25
     8b6:	89 81       	ldd	r24, Y+1	; 0x01
     8b8:	82 95       	swap	r24
     8ba:	86 95       	lsr	r24
     8bc:	87 70       	andi	r24, 0x07	; 7
     8be:	89 0f       	add	r24, r25
     8c0:	80 93 f5 00 	sts	0x00F5, r24	; 0x8000f5 <__TEXT_REGION_LENGTH__+0x7e00f5>
     8c4:	89 81       	ldd	r24, Y+1	; 0x01
     8c6:	88 0f       	add	r24, r24
     8c8:	88 0f       	add	r24, r24
     8ca:	88 0f       	add	r24, r24
     8cc:	44 ef       	ldi	r20, 0xF4	; 244
     8ce:	50 e0       	ldi	r21, 0x00	; 0
     8d0:	da 01       	movw	r26, r20
     8d2:	8c 93       	st	X, r24
     8d4:	ef ee       	ldi	r30, 0xEF	; 239
     8d6:	f0 e0       	ldi	r31, 0x00	; 0
     8d8:	90 81       	ld	r25, Z
     8da:	d8 01       	movw	r26, r16
     8dc:	16 96       	adiw	r26, 0x06	; 6
     8de:	8c 91       	ld	r24, X
     8e0:	16 97       	sbiw	r26, 0x06	; 6
     8e2:	89 2b       	or	r24, r25
     8e4:	80 83       	st	Z, r24
     8e6:	1a 96       	adiw	r26, 0x0a	; 10
     8e8:	1c 92       	st	X, r1
     8ea:	da 01       	movw	r26, r20
     8ec:	8c 91       	ld	r24, X
     8ee:	84 60       	ori	r24, 0x04	; 4
     8f0:	8c 93       	st	X, r24
     8f2:	20 ef       	ldi	r18, 0xF0	; 240
     8f4:	30 e0       	ldi	r19, 0x00	; 0
     8f6:	d9 01       	movw	r26, r18
     8f8:	8c 91       	ld	r24, X
     8fa:	8b 7f       	andi	r24, 0xFB	; 251
     8fc:	8c 93       	st	X, r24
     8fe:	da 01       	movw	r26, r20
     900:	8c 91       	ld	r24, X
     902:	81 60       	ori	r24, 0x01	; 1
     904:	8c 93       	st	X, r24
     906:	80 81       	ld	r24, Z
     908:	8f 73       	andi	r24, 0x3F	; 63
     90a:	80 83       	st	Z, r24
     90c:	80 81       	ld	r24, Z
     90e:	80 68       	ori	r24, 0x80	; 128
     910:	80 83       	st	Z, r24
     912:	80 e0       	ldi	r24, 0x00	; 0
     914:	af c1       	rjmp	.+862    	; 0xc74 <__stack+0x775>
     916:	f8 01       	movw	r30, r16
     918:	83 85       	ldd	r24, Z+11	; 0x0b
     91a:	88 23       	and	r24, r24
     91c:	81 f1       	breq	.+96     	; 0x97e <__stack+0x47f>
     91e:	85 81       	ldd	r24, Z+5	; 0x05
     920:	98 2f       	mov	r25, r24
     922:	99 0f       	add	r25, r25
     924:	99 0f       	add	r25, r25
     926:	99 0f       	add	r25, r25
     928:	84 81       	ldd	r24, Z+4	; 0x04
     92a:	82 95       	swap	r24
     92c:	86 95       	lsr	r24
     92e:	87 70       	andi	r24, 0x07	; 7
     930:	89 0f       	add	r24, r25
     932:	80 93 f3 00 	sts	0x00F3, r24	; 0x8000f3 <__TEXT_REGION_LENGTH__+0x7e00f3>
     936:	84 81       	ldd	r24, Z+4	; 0x04
     938:	98 2f       	mov	r25, r24
     93a:	99 0f       	add	r25, r25
     93c:	99 0f       	add	r25, r25
     93e:	99 0f       	add	r25, r25
     940:	83 81       	ldd	r24, Z+3	; 0x03
     942:	82 95       	swap	r24
     944:	86 95       	lsr	r24
     946:	87 70       	andi	r24, 0x07	; 7
     948:	89 0f       	add	r24, r25
     94a:	80 93 f2 00 	sts	0x00F2, r24	; 0x8000f2 <__TEXT_REGION_LENGTH__+0x7e00f2>
     94e:	83 81       	ldd	r24, Z+3	; 0x03
     950:	98 2f       	mov	r25, r24
     952:	99 0f       	add	r25, r25
     954:	99 0f       	add	r25, r25
     956:	99 0f       	add	r25, r25
     958:	82 81       	ldd	r24, Z+2	; 0x02
     95a:	82 95       	swap	r24
     95c:	86 95       	lsr	r24
     95e:	87 70       	andi	r24, 0x07	; 7
     960:	89 0f       	add	r24, r25
     962:	80 93 f1 00 	sts	0x00F1, r24	; 0x8000f1 <__TEXT_REGION_LENGTH__+0x7e00f1>
     966:	82 81       	ldd	r24, Z+2	; 0x02
     968:	88 0f       	add	r24, r24
     96a:	88 0f       	add	r24, r24
     96c:	88 0f       	add	r24, r24
     96e:	80 93 f0 00 	sts	0x00F0, r24	; 0x8000f0 <__TEXT_REGION_LENGTH__+0x7e00f0>
     972:	ef ee       	ldi	r30, 0xEF	; 239
     974:	f0 e0       	ldi	r31, 0x00	; 0
     976:	80 81       	ld	r24, Z
     978:	80 61       	ori	r24, 0x10	; 16
     97a:	80 83       	st	Z, r24
     97c:	17 c0       	rjmp	.+46     	; 0x9ac <__stack+0x4ad>
     97e:	93 81       	ldd	r25, Z+3	; 0x03
     980:	82 81       	ldd	r24, Z+2	; 0x02
     982:	86 95       	lsr	r24
     984:	86 95       	lsr	r24
     986:	86 95       	lsr	r24
     988:	b0 e2       	ldi	r27, 0x20	; 32
     98a:	9b 9f       	mul	r25, r27
     98c:	80 0d       	add	r24, r0
     98e:	11 24       	eor	r1, r1
     990:	80 93 f3 00 	sts	0x00F3, r24	; 0x8000f3 <__TEXT_REGION_LENGTH__+0x7e00f3>
     994:	f8 01       	movw	r30, r16
     996:	82 81       	ldd	r24, Z+2	; 0x02
     998:	82 95       	swap	r24
     99a:	88 0f       	add	r24, r24
     99c:	80 7e       	andi	r24, 0xE0	; 224
     99e:	80 93 f2 00 	sts	0x00F2, r24	; 0x8000f2 <__TEXT_REGION_LENGTH__+0x7e00f2>
     9a2:	ef ee       	ldi	r30, 0xEF	; 239
     9a4:	f0 e0       	ldi	r31, 0x00	; 0
     9a6:	80 81       	ld	r24, Z
     9a8:	8f 7e       	andi	r24, 0xEF	; 239
     9aa:	80 83       	st	Z, r24
     9ac:	8f ef       	ldi	r24, 0xFF	; 255
     9ae:	9f ef       	ldi	r25, 0xFF	; 255
     9b0:	dc 01       	movw	r26, r24
     9b2:	89 83       	std	Y+1, r24	; 0x01
     9b4:	9a 83       	std	Y+2, r25	; 0x02
     9b6:	ab 83       	std	Y+3, r26	; 0x03
     9b8:	bc 83       	std	Y+4, r27	; 0x04
     9ba:	80 93 f7 00 	sts	0x00F7, r24	; 0x8000f7 <__TEXT_REGION_LENGTH__+0x7e00f7>
     9be:	8b 81       	ldd	r24, Y+3	; 0x03
     9c0:	98 2f       	mov	r25, r24
     9c2:	99 0f       	add	r25, r25
     9c4:	99 0f       	add	r25, r25
     9c6:	99 0f       	add	r25, r25
     9c8:	8a 81       	ldd	r24, Y+2	; 0x02
     9ca:	82 95       	swap	r24
     9cc:	86 95       	lsr	r24
     9ce:	87 70       	andi	r24, 0x07	; 7
     9d0:	89 0f       	add	r24, r25
     9d2:	80 93 f6 00 	sts	0x00F6, r24	; 0x8000f6 <__TEXT_REGION_LENGTH__+0x7e00f6>
     9d6:	8a 81       	ldd	r24, Y+2	; 0x02
     9d8:	98 2f       	mov	r25, r24
     9da:	99 0f       	add	r25, r25
     9dc:	99 0f       	add	r25, r25
     9de:	99 0f       	add	r25, r25
     9e0:	89 81       	ldd	r24, Y+1	; 0x01
     9e2:	82 95       	swap	r24
     9e4:	86 95       	lsr	r24
     9e6:	87 70       	andi	r24, 0x07	; 7
     9e8:	89 0f       	add	r24, r25
     9ea:	80 93 f5 00 	sts	0x00F5, r24	; 0x8000f5 <__TEXT_REGION_LENGTH__+0x7e00f5>
     9ee:	89 81       	ldd	r24, Y+1	; 0x01
     9f0:	88 0f       	add	r24, r24
     9f2:	88 0f       	add	r24, r24
     9f4:	88 0f       	add	r24, r24
     9f6:	44 ef       	ldi	r20, 0xF4	; 244
     9f8:	50 e0       	ldi	r21, 0x00	; 0
     9fa:	da 01       	movw	r26, r20
     9fc:	8c 93       	st	X, r24
     9fe:	ef ee       	ldi	r30, 0xEF	; 239
     a00:	f0 e0       	ldi	r31, 0x00	; 0
     a02:	90 81       	ld	r25, Z
     a04:	d8 01       	movw	r26, r16
     a06:	16 96       	adiw	r26, 0x06	; 6
     a08:	8c 91       	ld	r24, X
     a0a:	16 97       	sbiw	r26, 0x06	; 6
     a0c:	89 2b       	or	r24, r25
     a0e:	80 83       	st	Z, r24
     a10:	81 e0       	ldi	r24, 0x01	; 1
     a12:	1a 96       	adiw	r26, 0x0a	; 10
     a14:	8c 93       	st	X, r24
     a16:	da 01       	movw	r26, r20
     a18:	8c 91       	ld	r24, X
     a1a:	84 60       	ori	r24, 0x04	; 4
     a1c:	8c 93       	st	X, r24
     a1e:	20 ef       	ldi	r18, 0xF0	; 240
     a20:	30 e0       	ldi	r19, 0x00	; 0
     a22:	d9 01       	movw	r26, r18
     a24:	8c 91       	ld	r24, X
     a26:	84 60       	ori	r24, 0x04	; 4
     a28:	8c 93       	st	X, r24
     a2a:	80 81       	ld	r24, Z
     a2c:	8f 7d       	andi	r24, 0xDF	; 223
     a2e:	80 83       	st	Z, r24
     a30:	da 01       	movw	r26, r20
     a32:	8c 91       	ld	r24, X
     a34:	81 60       	ori	r24, 0x01	; 1
     a36:	8c 93       	st	X, r24
     a38:	80 81       	ld	r24, Z
     a3a:	8f 73       	andi	r24, 0x3F	; 63
     a3c:	80 83       	st	Z, r24
     a3e:	80 81       	ld	r24, Z
     a40:	80 68       	ori	r24, 0x80	; 128
     a42:	80 83       	st	Z, r24
     a44:	80 e0       	ldi	r24, 0x00	; 0
     a46:	16 c1       	rjmp	.+556    	; 0xc74 <__stack+0x775>
     a48:	80 e0       	ldi	r24, 0x00	; 0
     a4a:	2a ef       	ldi	r18, 0xFA	; 250
     a4c:	30 e0       	ldi	r19, 0x00	; 0
     a4e:	d8 01       	movw	r26, r16
     a50:	17 96       	adiw	r26, 0x07	; 7
     a52:	ed 91       	ld	r30, X+
     a54:	fc 91       	ld	r31, X
     a56:	18 97       	sbiw	r26, 0x08	; 8
     a58:	e8 0f       	add	r30, r24
     a5a:	f1 1d       	adc	r31, r1
     a5c:	90 81       	ld	r25, Z
     a5e:	f9 01       	movw	r30, r18
     a60:	90 83       	st	Z, r25
     a62:	8f 5f       	subi	r24, 0xFF	; 255
     a64:	16 96       	adiw	r26, 0x06	; 6
     a66:	9c 91       	ld	r25, X
     a68:	89 17       	cp	r24, r25
     a6a:	88 f3       	brcs	.-30     	; 0xa4e <__stack+0x54f>
     a6c:	19 82       	std	Y+1, r1	; 0x01
     a6e:	1a 82       	std	Y+2, r1	; 0x02
     a70:	1b 82       	std	Y+3, r1	; 0x03
     a72:	1c 82       	std	Y+4, r1	; 0x04
     a74:	10 92 f7 00 	sts	0x00F7, r1	; 0x8000f7 <__TEXT_REGION_LENGTH__+0x7e00f7>
     a78:	8b 81       	ldd	r24, Y+3	; 0x03
     a7a:	98 2f       	mov	r25, r24
     a7c:	99 0f       	add	r25, r25
     a7e:	99 0f       	add	r25, r25
     a80:	99 0f       	add	r25, r25
     a82:	8a 81       	ldd	r24, Y+2	; 0x02
     a84:	82 95       	swap	r24
     a86:	86 95       	lsr	r24
     a88:	87 70       	andi	r24, 0x07	; 7
     a8a:	89 0f       	add	r24, r25
     a8c:	80 93 f6 00 	sts	0x00F6, r24	; 0x8000f6 <__TEXT_REGION_LENGTH__+0x7e00f6>
     a90:	8a 81       	ldd	r24, Y+2	; 0x02
     a92:	98 2f       	mov	r25, r24
     a94:	99 0f       	add	r25, r25
     a96:	99 0f       	add	r25, r25
     a98:	99 0f       	add	r25, r25
     a9a:	89 81       	ldd	r24, Y+1	; 0x01
     a9c:	82 95       	swap	r24
     a9e:	86 95       	lsr	r24
     aa0:	87 70       	andi	r24, 0x07	; 7
     aa2:	89 0f       	add	r24, r25
     aa4:	80 93 f5 00 	sts	0x00F5, r24	; 0x8000f5 <__TEXT_REGION_LENGTH__+0x7e00f5>
     aa8:	89 81       	ldd	r24, Y+1	; 0x01
     aaa:	88 0f       	add	r24, r24
     aac:	88 0f       	add	r24, r24
     aae:	88 0f       	add	r24, r24
     ab0:	44 ef       	ldi	r20, 0xF4	; 244
     ab2:	50 e0       	ldi	r21, 0x00	; 0
     ab4:	da 01       	movw	r26, r20
     ab6:	8c 93       	st	X, r24
     ab8:	ef ee       	ldi	r30, 0xEF	; 239
     aba:	f0 e0       	ldi	r31, 0x00	; 0
     abc:	90 81       	ld	r25, Z
     abe:	d8 01       	movw	r26, r16
     ac0:	16 96       	adiw	r26, 0x06	; 6
     ac2:	8c 91       	ld	r24, X
     ac4:	16 97       	sbiw	r26, 0x06	; 6
     ac6:	89 2b       	or	r24, r25
     ac8:	80 83       	st	Z, r24
     aca:	81 e0       	ldi	r24, 0x01	; 1
     acc:	1a 96       	adiw	r26, 0x0a	; 10
     ace:	8c 93       	st	X, r24
     ad0:	da 01       	movw	r26, r20
     ad2:	8c 91       	ld	r24, X
     ad4:	84 60       	ori	r24, 0x04	; 4
     ad6:	8c 93       	st	X, r24
     ad8:	20 ef       	ldi	r18, 0xF0	; 240
     ada:	30 e0       	ldi	r19, 0x00	; 0
     adc:	d9 01       	movw	r26, r18
     ade:	8c 91       	ld	r24, X
     ae0:	84 60       	ori	r24, 0x04	; 4
     ae2:	8c 93       	st	X, r24
     ae4:	80 81       	ld	r24, Z
     ae6:	80 62       	ori	r24, 0x20	; 32
     ae8:	80 83       	st	Z, r24
     aea:	da 01       	movw	r26, r20
     aec:	8c 91       	ld	r24, X
     aee:	8e 7f       	andi	r24, 0xFE	; 254
     af0:	8c 93       	st	X, r24
     af2:	80 81       	ld	r24, Z
     af4:	8f 73       	andi	r24, 0x3F	; 63
     af6:	80 83       	st	Z, r24
     af8:	80 81       	ld	r24, Z
     afa:	80 68       	ori	r24, 0x80	; 128
     afc:	80 83       	st	Z, r24
     afe:	80 e0       	ldi	r24, 0x00	; 0
     b00:	b9 c0       	rjmp	.+370    	; 0xc74 <__stack+0x775>
     b02:	f8 01       	movw	r30, r16
     b04:	83 85       	ldd	r24, Z+11	; 0x0b
     b06:	88 23       	and	r24, r24
     b08:	81 f1       	breq	.+96     	; 0xb6a <__stack+0x66b>
     b0a:	85 81       	ldd	r24, Z+5	; 0x05
     b0c:	98 2f       	mov	r25, r24
     b0e:	99 0f       	add	r25, r25
     b10:	99 0f       	add	r25, r25
     b12:	99 0f       	add	r25, r25
     b14:	84 81       	ldd	r24, Z+4	; 0x04
     b16:	82 95       	swap	r24
     b18:	86 95       	lsr	r24
     b1a:	87 70       	andi	r24, 0x07	; 7
     b1c:	89 0f       	add	r24, r25
     b1e:	80 93 f3 00 	sts	0x00F3, r24	; 0x8000f3 <__TEXT_REGION_LENGTH__+0x7e00f3>
     b22:	84 81       	ldd	r24, Z+4	; 0x04
     b24:	98 2f       	mov	r25, r24
     b26:	99 0f       	add	r25, r25
     b28:	99 0f       	add	r25, r25
     b2a:	99 0f       	add	r25, r25
     b2c:	83 81       	ldd	r24, Z+3	; 0x03
     b2e:	82 95       	swap	r24
     b30:	86 95       	lsr	r24
     b32:	87 70       	andi	r24, 0x07	; 7
     b34:	89 0f       	add	r24, r25
     b36:	80 93 f2 00 	sts	0x00F2, r24	; 0x8000f2 <__TEXT_REGION_LENGTH__+0x7e00f2>
     b3a:	83 81       	ldd	r24, Z+3	; 0x03
     b3c:	98 2f       	mov	r25, r24
     b3e:	99 0f       	add	r25, r25
     b40:	99 0f       	add	r25, r25
     b42:	99 0f       	add	r25, r25
     b44:	82 81       	ldd	r24, Z+2	; 0x02
     b46:	82 95       	swap	r24
     b48:	86 95       	lsr	r24
     b4a:	87 70       	andi	r24, 0x07	; 7
     b4c:	89 0f       	add	r24, r25
     b4e:	80 93 f1 00 	sts	0x00F1, r24	; 0x8000f1 <__TEXT_REGION_LENGTH__+0x7e00f1>
     b52:	82 81       	ldd	r24, Z+2	; 0x02
     b54:	88 0f       	add	r24, r24
     b56:	88 0f       	add	r24, r24
     b58:	88 0f       	add	r24, r24
     b5a:	80 93 f0 00 	sts	0x00F0, r24	; 0x8000f0 <__TEXT_REGION_LENGTH__+0x7e00f0>
     b5e:	ef ee       	ldi	r30, 0xEF	; 239
     b60:	f0 e0       	ldi	r31, 0x00	; 0
     b62:	80 81       	ld	r24, Z
     b64:	80 61       	ori	r24, 0x10	; 16
     b66:	80 83       	st	Z, r24
     b68:	17 c0       	rjmp	.+46     	; 0xb98 <__stack+0x699>
     b6a:	93 81       	ldd	r25, Z+3	; 0x03
     b6c:	82 81       	ldd	r24, Z+2	; 0x02
     b6e:	86 95       	lsr	r24
     b70:	86 95       	lsr	r24
     b72:	86 95       	lsr	r24
     b74:	b0 e2       	ldi	r27, 0x20	; 32
     b76:	9b 9f       	mul	r25, r27
     b78:	80 0d       	add	r24, r0
     b7a:	11 24       	eor	r1, r1
     b7c:	80 93 f3 00 	sts	0x00F3, r24	; 0x8000f3 <__TEXT_REGION_LENGTH__+0x7e00f3>
     b80:	f8 01       	movw	r30, r16
     b82:	82 81       	ldd	r24, Z+2	; 0x02
     b84:	82 95       	swap	r24
     b86:	88 0f       	add	r24, r24
     b88:	80 7e       	andi	r24, 0xE0	; 224
     b8a:	80 93 f2 00 	sts	0x00F2, r24	; 0x8000f2 <__TEXT_REGION_LENGTH__+0x7e00f2>
     b8e:	ef ee       	ldi	r30, 0xEF	; 239
     b90:	f0 e0       	ldi	r31, 0x00	; 0
     b92:	80 81       	ld	r24, Z
     b94:	8f 7e       	andi	r24, 0xEF	; 239
     b96:	80 83       	st	Z, r24
     b98:	d8 01       	movw	r26, r16
     b9a:	16 96       	adiw	r26, 0x06	; 6
     b9c:	8c 91       	ld	r24, X
     b9e:	88 23       	and	r24, r24
     ba0:	91 f0       	breq	.+36     	; 0xbc6 <__stack+0x6c7>
     ba2:	80 e0       	ldi	r24, 0x00	; 0
     ba4:	2a ef       	ldi	r18, 0xFA	; 250
     ba6:	30 e0       	ldi	r19, 0x00	; 0
     ba8:	d8 01       	movw	r26, r16
     baa:	17 96       	adiw	r26, 0x07	; 7
     bac:	ed 91       	ld	r30, X+
     bae:	fc 91       	ld	r31, X
     bb0:	18 97       	sbiw	r26, 0x08	; 8
     bb2:	e8 0f       	add	r30, r24
     bb4:	f1 1d       	adc	r31, r1
     bb6:	90 81       	ld	r25, Z
     bb8:	f9 01       	movw	r30, r18
     bba:	90 83       	st	Z, r25
     bbc:	8f 5f       	subi	r24, 0xFF	; 255
     bbe:	16 96       	adiw	r26, 0x06	; 6
     bc0:	9c 91       	ld	r25, X
     bc2:	89 17       	cp	r24, r25
     bc4:	88 f3       	brcs	.-30     	; 0xba8 <__stack+0x6a9>
     bc6:	8f ef       	ldi	r24, 0xFF	; 255
     bc8:	9f ef       	ldi	r25, 0xFF	; 255
     bca:	dc 01       	movw	r26, r24
     bcc:	89 83       	std	Y+1, r24	; 0x01
     bce:	9a 83       	std	Y+2, r25	; 0x02
     bd0:	ab 83       	std	Y+3, r26	; 0x03
     bd2:	bc 83       	std	Y+4, r27	; 0x04
     bd4:	80 93 f7 00 	sts	0x00F7, r24	; 0x8000f7 <__TEXT_REGION_LENGTH__+0x7e00f7>
     bd8:	8b 81       	ldd	r24, Y+3	; 0x03
     bda:	98 2f       	mov	r25, r24
     bdc:	99 0f       	add	r25, r25
     bde:	99 0f       	add	r25, r25
     be0:	99 0f       	add	r25, r25
     be2:	8a 81       	ldd	r24, Y+2	; 0x02
     be4:	82 95       	swap	r24
     be6:	86 95       	lsr	r24
     be8:	87 70       	andi	r24, 0x07	; 7
     bea:	89 0f       	add	r24, r25
     bec:	80 93 f6 00 	sts	0x00F6, r24	; 0x8000f6 <__TEXT_REGION_LENGTH__+0x7e00f6>
     bf0:	8a 81       	ldd	r24, Y+2	; 0x02
     bf2:	98 2f       	mov	r25, r24
     bf4:	99 0f       	add	r25, r25
     bf6:	99 0f       	add	r25, r25
     bf8:	99 0f       	add	r25, r25
     bfa:	89 81       	ldd	r24, Y+1	; 0x01
     bfc:	82 95       	swap	r24
     bfe:	86 95       	lsr	r24
     c00:	87 70       	andi	r24, 0x07	; 7
     c02:	89 0f       	add	r24, r25
     c04:	80 93 f5 00 	sts	0x00F5, r24	; 0x8000f5 <__TEXT_REGION_LENGTH__+0x7e00f5>
     c08:	89 81       	ldd	r24, Y+1	; 0x01
     c0a:	88 0f       	add	r24, r24
     c0c:	88 0f       	add	r24, r24
     c0e:	88 0f       	add	r24, r24
     c10:	44 ef       	ldi	r20, 0xF4	; 244
     c12:	50 e0       	ldi	r21, 0x00	; 0
     c14:	da 01       	movw	r26, r20
     c16:	8c 93       	st	X, r24
     c18:	ef ee       	ldi	r30, 0xEF	; 239
     c1a:	f0 e0       	ldi	r31, 0x00	; 0
     c1c:	90 81       	ld	r25, Z
     c1e:	d8 01       	movw	r26, r16
     c20:	16 96       	adiw	r26, 0x06	; 6
     c22:	8c 91       	ld	r24, X
     c24:	16 97       	sbiw	r26, 0x06	; 6
     c26:	89 2b       	or	r24, r25
     c28:	80 83       	st	Z, r24
     c2a:	81 e0       	ldi	r24, 0x01	; 1
     c2c:	1a 96       	adiw	r26, 0x0a	; 10
     c2e:	8c 93       	st	X, r24
     c30:	da 01       	movw	r26, r20
     c32:	8c 91       	ld	r24, X
     c34:	84 60       	ori	r24, 0x04	; 4
     c36:	8c 93       	st	X, r24
     c38:	20 ef       	ldi	r18, 0xF0	; 240
     c3a:	30 e0       	ldi	r19, 0x00	; 0
     c3c:	d9 01       	movw	r26, r18
     c3e:	8c 91       	ld	r24, X
     c40:	84 60       	ori	r24, 0x04	; 4
     c42:	8c 93       	st	X, r24
     c44:	80 81       	ld	r24, Z
     c46:	80 62       	ori	r24, 0x20	; 32
     c48:	80 83       	st	Z, r24
     c4a:	da 01       	movw	r26, r20
     c4c:	8c 91       	ld	r24, X
     c4e:	81 60       	ori	r24, 0x01	; 1
     c50:	8c 93       	st	X, r24
     c52:	80 81       	ld	r24, Z
     c54:	8f 73       	andi	r24, 0x3F	; 63
     c56:	80 83       	st	Z, r24
     c58:	80 81       	ld	r24, Z
     c5a:	80 68       	ori	r24, 0x80	; 128
     c5c:	80 83       	st	Z, r24
     c5e:	80 e0       	ldi	r24, 0x00	; 0
     c60:	09 c0       	rjmp	.+18     	; 0xc74 <__stack+0x775>
     c62:	f8 01       	movw	r30, r16
     c64:	11 86       	std	Z+9, r1	; 0x09
     c66:	80 e0       	ldi	r24, 0x00	; 0
     c68:	05 c0       	rjmp	.+10     	; 0xc74 <__stack+0x775>
     c6a:	8f e1       	ldi	r24, 0x1F	; 31
     c6c:	d8 01       	movw	r26, r16
     c6e:	19 96       	adiw	r26, 0x09	; 9
     c70:	8c 93       	st	X, r24
     c72:	8f ef       	ldi	r24, 0xFF	; 255
     c74:	0f 90       	pop	r0
     c76:	0f 90       	pop	r0
     c78:	0f 90       	pop	r0
     c7a:	0f 90       	pop	r0
     c7c:	df 91       	pop	r29
     c7e:	cf 91       	pop	r28
     c80:	1f 91       	pop	r17
     c82:	0f 91       	pop	r16
     c84:	08 95       	ret

00000c86 <can_get_status>:
     c86:	1f 93       	push	r17
     c88:	cf 93       	push	r28
     c8a:	df 93       	push	r29
     c8c:	fc 01       	movw	r30, r24
     c8e:	91 85       	ldd	r25, Z+9	; 0x09
     c90:	99 23       	and	r25, r25
     c92:	09 f4       	brne	.+2      	; 0xc96 <can_get_status+0x10>
     c94:	8b c0       	rjmp	.+278    	; 0xdac <can_get_status+0x126>
     c96:	9f 31       	cpi	r25, 0x1F	; 31
     c98:	09 f4       	brne	.+2      	; 0xc9c <can_get_status+0x16>
     c9a:	8a c0       	rjmp	.+276    	; 0xdb0 <can_get_status+0x12a>
     c9c:	9f 3f       	cpi	r25, 0xFF	; 255
     c9e:	09 f4       	brne	.+2      	; 0xca2 <can_get_status+0x1c>
     ca0:	89 c0       	rjmp	.+274    	; 0xdb4 <can_get_status+0x12e>
     ca2:	ef 01       	movw	r28, r30
     ca4:	80 81       	ld	r24, Z
     ca6:	82 95       	swap	r24
     ca8:	80 7f       	andi	r24, 0xF0	; 240
     caa:	80 93 ed 00 	sts	0x00ED, r24	; 0x8000ed <__TEXT_REGION_LENGTH__+0x7e00ed>
     cae:	3f da       	rcall	.-2946   	; 0x12e <can_get_mob_status>
     cb0:	18 2f       	mov	r17, r24
     cb2:	80 32       	cpi	r24, 0x20	; 32
     cb4:	59 f0       	breq	.+22     	; 0xccc <can_get_status+0x46>
     cb6:	20 f4       	brcc	.+8      	; 0xcc0 <can_get_status+0x3a>
     cb8:	88 23       	and	r24, r24
     cba:	09 f4       	brne	.+2      	; 0xcbe <can_get_status+0x38>
     cbc:	7d c0       	rjmp	.+250    	; 0xdb8 <can_get_status+0x132>
     cbe:	6c c0       	rjmp	.+216    	; 0xd98 <can_get_status+0x112>
     cc0:	80 34       	cpi	r24, 0x40	; 64
     cc2:	09 f4       	brne	.+2      	; 0xcc6 <can_get_status+0x40>
     cc4:	5e c0       	rjmp	.+188    	; 0xd82 <can_get_status+0xfc>
     cc6:	80 3a       	cpi	r24, 0xA0	; 160
     cc8:	09 f0       	breq	.+2      	; 0xccc <can_get_status+0x46>
     cca:	66 c0       	rjmp	.+204    	; 0xd98 <can_get_status+0x112>
     ccc:	80 91 ef 00 	lds	r24, 0x00EF	; 0x8000ef <__TEXT_REGION_LENGTH__+0x7e00ef>
     cd0:	8f 70       	andi	r24, 0x0F	; 15
     cd2:	8e 83       	std	Y+6, r24	; 0x06
     cd4:	8f 81       	ldd	r24, Y+7	; 0x07
     cd6:	98 85       	ldd	r25, Y+8	; 0x08
     cd8:	42 da       	rcall	.-2940   	; 0x15e <can_get_data>
     cda:	90 91 f0 00 	lds	r25, 0x00F0	; 0x8000f0 <__TEXT_REGION_LENGTH__+0x7e00f0>
     cde:	81 e0       	ldi	r24, 0x01	; 1
     ce0:	92 ff       	sbrs	r25, 2
     ce2:	80 e0       	ldi	r24, 0x00	; 0
     ce4:	8a 87       	std	Y+10, r24	; 0x0a
     ce6:	80 91 ef 00 	lds	r24, 0x00EF	; 0x8000ef <__TEXT_REGION_LENGTH__+0x7e00ef>
     cea:	84 ff       	sbrs	r24, 4
     cec:	2d c0       	rjmp	.+90     	; 0xd48 <can_get_status+0xc2>
     cee:	81 e0       	ldi	r24, 0x01	; 1
     cf0:	8b 87       	std	Y+11, r24	; 0x0b
     cf2:	e3 ef       	ldi	r30, 0xF3	; 243
     cf4:	f0 e0       	ldi	r31, 0x00	; 0
     cf6:	80 81       	ld	r24, Z
     cf8:	86 95       	lsr	r24
     cfa:	86 95       	lsr	r24
     cfc:	86 95       	lsr	r24
     cfe:	8d 83       	std	Y+5, r24	; 0x05
     d00:	a2 ef       	ldi	r26, 0xF2	; 242
     d02:	b0 e0       	ldi	r27, 0x00	; 0
     d04:	8c 91       	ld	r24, X
     d06:	90 81       	ld	r25, Z
     d08:	86 95       	lsr	r24
     d0a:	86 95       	lsr	r24
     d0c:	86 95       	lsr	r24
     d0e:	20 e2       	ldi	r18, 0x20	; 32
     d10:	92 9f       	mul	r25, r18
     d12:	80 0d       	add	r24, r0
     d14:	11 24       	eor	r1, r1
     d16:	8c 83       	std	Y+4, r24	; 0x04
     d18:	e1 ef       	ldi	r30, 0xF1	; 241
     d1a:	f0 e0       	ldi	r31, 0x00	; 0
     d1c:	80 81       	ld	r24, Z
     d1e:	9c 91       	ld	r25, X
     d20:	86 95       	lsr	r24
     d22:	86 95       	lsr	r24
     d24:	86 95       	lsr	r24
     d26:	20 e2       	ldi	r18, 0x20	; 32
     d28:	92 9f       	mul	r25, r18
     d2a:	80 0d       	add	r24, r0
     d2c:	11 24       	eor	r1, r1
     d2e:	8b 83       	std	Y+3, r24	; 0x03
     d30:	80 91 f0 00 	lds	r24, 0x00F0	; 0x8000f0 <__TEXT_REGION_LENGTH__+0x7e00f0>
     d34:	90 81       	ld	r25, Z
     d36:	86 95       	lsr	r24
     d38:	86 95       	lsr	r24
     d3a:	86 95       	lsr	r24
     d3c:	20 e2       	ldi	r18, 0x20	; 32
     d3e:	92 9f       	mul	r25, r18
     d40:	80 0d       	add	r24, r0
     d42:	11 24       	eor	r1, r1
     d44:	8a 83       	std	Y+2, r24	; 0x02
     d46:	13 c0       	rjmp	.+38     	; 0xd6e <can_get_status+0xe8>
     d48:	1b 86       	std	Y+11, r1	; 0x0b
     d4a:	e3 ef       	ldi	r30, 0xF3	; 243
     d4c:	f0 e0       	ldi	r31, 0x00	; 0
     d4e:	80 81       	ld	r24, Z
     d50:	82 95       	swap	r24
     d52:	86 95       	lsr	r24
     d54:	87 70       	andi	r24, 0x07	; 7
     d56:	8b 83       	std	Y+3, r24	; 0x03
     d58:	90 91 f2 00 	lds	r25, 0x00F2	; 0x8000f2 <__TEXT_REGION_LENGTH__+0x7e00f2>
     d5c:	80 81       	ld	r24, Z
     d5e:	92 95       	swap	r25
     d60:	96 95       	lsr	r25
     d62:	97 70       	andi	r25, 0x07	; 7
     d64:	88 0f       	add	r24, r24
     d66:	88 0f       	add	r24, r24
     d68:	88 0f       	add	r24, r24
     d6a:	89 0f       	add	r24, r25
     d6c:	8a 83       	std	Y+2, r24	; 0x02
     d6e:	19 87       	std	Y+9, r17	; 0x09
     d70:	ef ee       	ldi	r30, 0xEF	; 239
     d72:	f0 e0       	ldi	r31, 0x00	; 0
     d74:	80 81       	ld	r24, Z
     d76:	8f 73       	andi	r24, 0x3F	; 63
     d78:	80 83       	st	Z, r24
     d7a:	10 92 ee 00 	sts	0x00EE, r1	; 0x8000ee <__TEXT_REGION_LENGTH__+0x7e00ee>
     d7e:	80 e0       	ldi	r24, 0x00	; 0
     d80:	1c c0       	rjmp	.+56     	; 0xdba <can_get_status+0x134>
     d82:	80 e4       	ldi	r24, 0x40	; 64
     d84:	89 87       	std	Y+9, r24	; 0x09
     d86:	ef ee       	ldi	r30, 0xEF	; 239
     d88:	f0 e0       	ldi	r31, 0x00	; 0
     d8a:	80 81       	ld	r24, Z
     d8c:	8f 73       	andi	r24, 0x3F	; 63
     d8e:	80 83       	st	Z, r24
     d90:	10 92 ee 00 	sts	0x00EE, r1	; 0x8000ee <__TEXT_REGION_LENGTH__+0x7e00ee>
     d94:	80 e0       	ldi	r24, 0x00	; 0
     d96:	11 c0       	rjmp	.+34     	; 0xdba <can_get_status+0x134>
     d98:	19 87       	std	Y+9, r17	; 0x09
     d9a:	ef ee       	ldi	r30, 0xEF	; 239
     d9c:	f0 e0       	ldi	r31, 0x00	; 0
     d9e:	80 81       	ld	r24, Z
     da0:	8f 73       	andi	r24, 0x3F	; 63
     da2:	80 83       	st	Z, r24
     da4:	10 92 ee 00 	sts	0x00EE, r1	; 0x8000ee <__TEXT_REGION_LENGTH__+0x7e00ee>
     da8:	82 e0       	ldi	r24, 0x02	; 2
     daa:	07 c0       	rjmp	.+14     	; 0xdba <can_get_status+0x134>
     dac:	82 e0       	ldi	r24, 0x02	; 2
     dae:	05 c0       	rjmp	.+10     	; 0xdba <can_get_status+0x134>
     db0:	82 e0       	ldi	r24, 0x02	; 2
     db2:	03 c0       	rjmp	.+6      	; 0xdba <can_get_status+0x134>
     db4:	82 e0       	ldi	r24, 0x02	; 2
     db6:	01 c0       	rjmp	.+2      	; 0xdba <can_get_status+0x134>
     db8:	81 e0       	ldi	r24, 0x01	; 1
     dba:	df 91       	pop	r29
     dbc:	cf 91       	pop	r28
     dbe:	1f 91       	pop	r17
     dc0:	08 95       	ret

00000dc2 <main>:



int main(void)
{
	uart_init(9600);
     dc2:	80 e8       	ldi	r24, 0x80	; 128
     dc4:	95 e2       	ldi	r25, 0x25	; 37
     dc6:	4e d1       	rcall	.+668    	; 0x1064 <uart_init>
	
	//fdevopen(&uart_putc, NULL);
	//fdevopen((int (*)(char,  struct __file *))&uart_getc, NULL);
	
	fdevopen(&uart_putc, &uart_getc);
     dc8:	65 e7       	ldi	r22, 0x75	; 117
     dca:	78 e0       	ldi	r23, 0x08	; 8
     dcc:	8c e5       	ldi	r24, 0x5C	; 92
     dce:	98 e0       	ldi	r25, 0x08	; 8
	can_init(0);
     dd0:	db d1       	rcall	.+950    	; 0x1188 <fdevopen>
     dd2:	80 e0       	ldi	r24, 0x00	; 0
     dd4:	ef d9       	rcall	.-3106   	; 0x1b4 <can_init>
	CANGIE |= (1 << ENIT);
     dd6:	eb ed       	ldi	r30, 0xDB	; 219
     dd8:	f0 e0       	ldi	r31, 0x00	; 0
     dda:	80 81       	ld	r24, Z
     ddc:	80 68       	ori	r24, 0x80	; 128
     dde:	80 83       	st	Z, r24
	sei();
     de0:	78 94       	sei
	
	can_buffer_rx[0] = 0x00; //Byte 0
     de2:	ee e8       	ldi	r30, 0x8E	; 142
     de4:	f2 e0       	ldi	r31, 0x02	; 2
     de6:	10 82       	st	Z, r1
	can_buffer_rx[1] = 0x00; //Software throttle
     de8:	11 82       	std	Z+1, r1	; 0x01
	can_buffer_rx[2] = 0x00;
     dea:	12 82       	std	Z+2, r1	; 0x02
	can_buffer_rx[3] = 0x00;
     dec:	13 82       	std	Z+3, r1	; 0x03
	can_buffer_rx[4] = 0x00;
     dee:	14 82       	std	Z+4, r1	; 0x04
	can_buffer_rx[5] = 0x00;
     df0:	15 82       	std	Z+5, r1	; 0x05
	can_buffer_rx[6] = 0x00;
     df2:	16 82       	std	Z+6, r1	; 0x06
	can_buffer_rx[7] = 0x00;
     df4:	17 82       	std	Z+7, r1	; 0x07
	*/
	
	char temp_buff [8];
	char temp_two [30];
	char buffer[128];
	int i = 0;
     df6:	c0 e0       	ldi	r28, 0x00	; 0
     df8:	d0 e0       	ldi	r29, 0x00	; 0
	
	
	for(;;) {
		curr = uart_getc(NULL);
		if(i < 8){
			printf("Last char in rx_buffer: ");
     dfa:	0f 2e       	mov	r0, r31
     dfc:	fc e0       	ldi	r31, 0x0C	; 12
     dfe:	cf 2e       	mov	r12, r31
     e00:	f2 e0       	ldi	r31, 0x02	; 2
     e02:	df 2e       	mov	r13, r31
     e04:	f0 2d       	mov	r31, r0
			printf("%c\n", curr);
     e06:	0f 2e       	mov	r0, r31
     e08:	f5 e2       	ldi	r31, 0x25	; 37
     e0a:	ef 2e       	mov	r14, r31
     e0c:	f2 e0       	ldi	r31, 0x02	; 2
     e0e:	ff 2e       	mov	r15, r31
		_delay_ms(2000);
	}*/
	
	
	for(;;) {
		curr = uart_getc(NULL);
     e10:	f0 2d       	mov	r31, r0
     e12:	80 e0       	ldi	r24, 0x00	; 0
     e14:	90 e0       	ldi	r25, 0x00	; 0
     e16:	69 d1       	rcall	.+722    	; 0x10ea <uart_getc>
     e18:	18 2f       	mov	r17, r24
		if(i < 8){
     e1a:	c8 30       	cpi	r28, 0x08	; 8
     e1c:	d1 05       	cpc	r29, r1
			printf("Last char in rx_buffer: ");
     e1e:	7c f4       	brge	.+30     	; 0xe3e <main+0x7c>
     e20:	df 92       	push	r13
     e22:	cf 92       	push	r12
			printf("%c\n", curr);
     e24:	fb d1       	rcall	.+1014   	; 0x121c <printf>
     e26:	1f 92       	push	r1
     e28:	1f 93       	push	r17
     e2a:	ff 92       	push	r15
     e2c:	ef 92       	push	r14
     e2e:	f6 d1       	rcall	.+1004   	; 0x121c <printf>
     e30:	0f 90       	pop	r0
     e32:	0f 90       	pop	r0
     e34:	0f 90       	pop	r0
     e36:	0f 90       	pop	r0
     e38:	0f 90       	pop	r0
     e3a:	0f 90       	pop	r0
		}
		else if (i == 8) {
     e3c:	2c c0       	rjmp	.+88     	; 0xe96 <main+0xd4>
     e3e:	c8 30       	cpi	r28, 0x08	; 8
     e40:	d1 05       	cpc	r29, r1
			printf("\n 8 ENTERED \n");
     e42:	31 f4       	brne	.+12     	; 0xe50 <main+0x8e>
     e44:	89 e2       	ldi	r24, 0x29	; 41
     e46:	92 e0       	ldi	r25, 0x02	; 2
     e48:	fc d1       	rcall	.+1016   	; 0x1242 <puts>
			i++;
     e4a:	c9 e0       	ldi	r28, 0x09	; 9
     e4c:	d0 e0       	ldi	r29, 0x00	; 0
		}
		else if (i > 8){
     e4e:	23 c0       	rjmp	.+70     	; 0xe96 <main+0xd4>
     e50:	c9 30       	cpi	r28, 0x09	; 9
     e52:	d1 05       	cpc	r29, r1
			i++;
			printf("Now sending over can bus. \n");
     e54:	04 f1       	brlt	.+64     	; 0xe96 <main+0xd4>
     e56:	86 e3       	ldi	r24, 0x36	; 54
     e58:	92 e0       	ldi	r25, 0x02	; 2
     e5a:	f3 d1       	rcall	.+998    	; 0x1242 <puts>
		//can_buffer_tx[5] = 0x77; //Voltage
		//can_buffer_tx[6] = 0xaa; //Voltage
		//can_buffer_tx[7] = 0x9c; //Reserved
										
		// point message object to first element of data buffer
		tx_msg.pt_data = &can_buffer_tx[0];
     e5c:	ce e6       	ldi	r28, 0x6E	; 110
     e5e:	d2 e0       	ldi	r29, 0x02	; 2
     e60:	0f 2e       	mov	r0, r31
     e62:	fa e7       	ldi	r31, 0x7A	; 122
     e64:	cf 2e       	mov	r12, r31
     e66:	f2 e0       	ldi	r31, 0x02	; 2
     e68:	df 2e       	mov	r13, r31
     e6a:	f0 2d       	mov	r31, r0
     e6c:	6c 2c       	mov	r6, r12
     e6e:	7d 2c       	mov	r7, r13
		// standard CAN frame type (2.0A)
		tx_msg.ctrl.ide = 0;
		// Number of bytes being sent (8 max)
		tx_msg.dlc = CAN_BUFFER_SIZE;
     e70:	68 94       	set
     e72:	88 24       	eor	r8, r8
     e74:	83 f8       	bld	r8, 3
		// populate ID field with ID Tag
		tx_msg.id.std = CAN_ID;
     e76:	68 94       	set
     e78:	aa 24       	eor	r10, r10
     e7a:	a7 f8       	bld	r10, 7
     e7c:	b1 2c       	mov	r11, r1
		// assign this as a "Standard (2.0A) Reply" message object
		tx_msg.cmd = CMD_TX_DATA;
     e7e:	68 94       	set
     e80:	99 24       	eor	r9, r9
     e82:	91 f8       	bld	r9, 1
		while(can_cmd(&tx_msg) != CAN_CMD_ACCEPTED);

		// wait for a transmit request to come in, and send a response
		while(can_get_status(&tx_msg) == CAN_STATUS_NOT_COMPLETED);
		
		printf("Last char sent: ");
     e84:	0f 2e       	mov	r0, r31
     e86:	fc e5       	ldi	r31, 0x5C	; 92
     e88:	ef 2e       	mov	r14, r31
     e8a:	f2 e0       	ldi	r31, 0x02	; 2
     e8c:	ff 2e       	mov	r15, r31
		printf("%c\n", can_buffer_tx[7]);
     e8e:	f0 2d       	mov	r31, r0
     e90:	05 e2       	ldi	r16, 0x25	; 37
			i++;
		}
		else if (i > 8){
			i++;
			printf("Now sending over can bus. \n");
			break;
     e92:	12 e0       	ldi	r17, 0x02	; 2
		}
		
		if(curr != NULL){
     e94:	14 c0       	rjmp	.+40     	; 0xebe <main+0xfc>
     e96:	11 23       	and	r17, r17
			printf("\n GOT ONE \n");
     e98:	41 f0       	breq	.+16     	; 0xeaa <main+0xe8>
     e9a:	81 e5       	ldi	r24, 0x51	; 81
     e9c:	92 e0       	ldi	r25, 0x02	; 2
     e9e:	d1 d1       	rcall	.+930    	; 0x1242 <puts>
			can_buffer_tx[i] = curr;
     ea0:	fe 01       	movw	r30, r28
     ea2:	e6 58       	subi	r30, 0x86	; 134
     ea4:	fd 4f       	sbci	r31, 0xFD	; 253
     ea6:	10 83       	st	Z, r17
			i = i+1;
     ea8:	21 96       	adiw	r28, 0x01	; 1
	#else
		//round up by default
		__ticks_dc = (uint32_t)(ceil(fabs(__tmp)));
	#endif

	__builtin_avr_delay_cycles(__ticks_dc);
     eaa:	2f ef       	ldi	r18, 0xFF	; 255
     eac:	87 ea       	ldi	r24, 0xA7	; 167
     eae:	91 e6       	ldi	r25, 0x61	; 97
     eb0:	21 50       	subi	r18, 0x01	; 1
     eb2:	80 40       	sbci	r24, 0x00	; 0
     eb4:	90 40       	sbci	r25, 0x00	; 0
     eb6:	e1 f7       	brne	.-8      	; 0xeb0 <main+0xee>
     eb8:	00 c0       	rjmp	.+0      	; 0xeba <main+0xf8>
     eba:	00 00       	nop
		//can_buffer_tx[5] = 0x77; //Voltage
		//can_buffer_tx[6] = 0xaa; //Voltage
		//can_buffer_tx[7] = 0x9c; //Reserved
										
		// point message object to first element of data buffer
		tx_msg.pt_data = &can_buffer_tx[0];
     ebc:	aa cf       	rjmp	.-172    	; 0xe12 <main+0x50>
     ebe:	6f 82       	std	Y+7, r6	; 0x07
		// standard CAN frame type (2.0A)
		tx_msg.ctrl.ide = 0;
		// Number of bytes being sent (8 max)
		tx_msg.dlc = CAN_BUFFER_SIZE;
		// populate ID field with ID Tag
		tx_msg.id.std = CAN_ID;
     ec0:	78 86       	std	Y+8, r7	; 0x08
     ec2:	1b 86       	std	Y+11, r1	; 0x0b
		// assign this as a "Standard (2.0A) Reply" message object
		tx_msg.cmd = CMD_TX_DATA;
     ec4:	8e 82       	std	Y+6, r8	; 0x06
		
		// wait for MOb to configure
		while(can_cmd(&tx_msg) != CAN_CMD_ACCEPTED);
     ec6:	bb 82       	std	Y+3, r11	; 0x03
     ec8:	aa 82       	std	Y+2, r10	; 0x02
     eca:	99 82       	std	Y+1, r9	; 0x01
     ecc:	ce 01       	movw	r24, r28

		// wait for a transmit request to come in, and send a response
		while(can_get_status(&tx_msg) == CAN_STATUS_NOT_COMPLETED);
     ece:	7d d9       	rcall	.-3334   	; 0x1ca <can_cmd>
     ed0:	81 11       	cpse	r24, r1
     ed2:	fc cf       	rjmp	.-8      	; 0xecc <main+0x10a>
     ed4:	ce 01       	movw	r24, r28
		
		printf("Last char sent: ");
     ed6:	d7 de       	rcall	.-594    	; 0xc86 <can_get_status>
     ed8:	81 30       	cpi	r24, 0x01	; 1
     eda:	e1 f3       	breq	.-8      	; 0xed4 <main+0x112>
     edc:	ff 92       	push	r15
		printf("%c\n", can_buffer_tx[7]);
     ede:	ef 92       	push	r14
     ee0:	9d d1       	rcall	.+826    	; 0x121c <printf>
     ee2:	f6 01       	movw	r30, r12
     ee4:	87 81       	ldd	r24, Z+7	; 0x07
     ee6:	1f 92       	push	r1
     ee8:	8f 93       	push	r24
     eea:	1f 93       	push	r17
     eec:	0f 93       	push	r16
     eee:	96 d1       	rcall	.+812    	; 0x121c <printf>
     ef0:	ff ef       	ldi	r31, 0xFF	; 255
     ef2:	23 e2       	ldi	r18, 0x23	; 35
     ef4:	84 ef       	ldi	r24, 0xF4	; 244
     ef6:	f1 50       	subi	r31, 0x01	; 1
     ef8:	20 40       	sbci	r18, 0x00	; 0
     efa:	80 40       	sbci	r24, 0x00	; 0
     efc:	e1 f7       	brne	.-8      	; 0xef6 <main+0x134>
     efe:	00 c0       	rjmp	.+0      	; 0xf00 <main+0x13e>
     f00:	00 00       	nop
     f02:	0f 90       	pop	r0
     f04:	0f 90       	pop	r0
     f06:	0f 90       	pop	r0
     f08:	0f 90       	pop	r0
     f0a:	0f 90       	pop	r0
     f0c:	0f 90       	pop	r0
     f0e:	d7 cf       	rjmp	.-82     	; 0xebe <main+0xfc>

00000f10 <buffer_write>:
	str[i] = '\0';
}

bool buffer_full(struct ringbuffer* buffer) {
	return ((buffer->head == buffer->tail) && !(buffer->empty));
}
     f10:	fc 01       	movw	r30, r24
     f12:	ee 57       	subi	r30, 0x7E	; 126
     f14:	ff 4f       	sbci	r31, 0xFF	; 255
     f16:	20 81       	ld	r18, Z
     f18:	22 23       	and	r18, r18
     f1a:	11 f0       	breq	.+4      	; 0xf20 <buffer_write+0x10>
     f1c:	10 82       	st	Z, r1
     f1e:	16 c0       	rjmp	.+44     	; 0xf4c <buffer_write+0x3c>
     f20:	fc 01       	movw	r30, r24
     f22:	e0 58       	subi	r30, 0x80	; 128
     f24:	ff 4f       	sbci	r31, 0xFF	; 255
     f26:	20 81       	ld	r18, Z
     f28:	31 96       	adiw	r30, 0x01	; 1
     f2a:	30 81       	ld	r19, Z
     f2c:	23 13       	cpse	r18, r19
     f2e:	0e c0       	rjmp	.+28     	; 0xf4c <buffer_write+0x3c>
     f30:	30 e0       	ldi	r19, 0x00	; 0
     f32:	2f 5f       	subi	r18, 0xFF	; 255
     f34:	3f 4f       	sbci	r19, 0xFF	; 255
     f36:	2f 77       	andi	r18, 0x7F	; 127
     f38:	30 78       	andi	r19, 0x80	; 128
     f3a:	33 23       	and	r19, r19
     f3c:	34 f4       	brge	.+12     	; 0xf4a <buffer_write+0x3a>
     f3e:	21 50       	subi	r18, 0x01	; 1
     f40:	31 09       	sbc	r19, r1
     f42:	20 68       	ori	r18, 0x80	; 128
     f44:	3f 6f       	ori	r19, 0xFF	; 255
     f46:	2f 5f       	subi	r18, 0xFF	; 255
     f48:	3f 4f       	sbci	r19, 0xFF	; 255
     f4a:	20 83       	st	Z, r18
     f4c:	fc 01       	movw	r30, r24
     f4e:	e0 58       	subi	r30, 0x80	; 128
     f50:	ff 4f       	sbci	r31, 0xFF	; 255
     f52:	20 81       	ld	r18, Z
     f54:	30 e0       	ldi	r19, 0x00	; 0
     f56:	dc 01       	movw	r26, r24
     f58:	a2 0f       	add	r26, r18
     f5a:	b3 1f       	adc	r27, r19
     f5c:	6c 93       	st	X, r22
     f5e:	c9 01       	movw	r24, r18
     f60:	01 96       	adiw	r24, 0x01	; 1
     f62:	8f 77       	andi	r24, 0x7F	; 127
     f64:	90 78       	andi	r25, 0x80	; 128
     f66:	99 23       	and	r25, r25
     f68:	24 f4       	brge	.+8      	; 0xf72 <buffer_write+0x62>
     f6a:	01 97       	sbiw	r24, 0x01	; 1
     f6c:	80 68       	ori	r24, 0x80	; 128
     f6e:	9f 6f       	ori	r25, 0xFF	; 255
     f70:	01 96       	adiw	r24, 0x01	; 1
     f72:	80 83       	st	Z, r24
     f74:	08 95       	ret

00000f76 <buffer_read>:
     f76:	fc 01       	movw	r30, r24
     f78:	ee 57       	subi	r30, 0x7E	; 126
     f7a:	ff 4f       	sbci	r31, 0xFF	; 255
     f7c:	20 81       	ld	r18, Z
     f7e:	21 11       	cpse	r18, r1
     f80:	22 c0       	rjmp	.+68     	; 0xfc6 <buffer_read+0x50>
     f82:	31 97       	sbiw	r30, 0x01	; 1
     f84:	20 81       	ld	r18, Z
     f86:	30 e0       	ldi	r19, 0x00	; 0
     f88:	fc 01       	movw	r30, r24
     f8a:	e2 0f       	add	r30, r18
     f8c:	f3 1f       	adc	r31, r19
     f8e:	40 81       	ld	r20, Z
     f90:	2f 5f       	subi	r18, 0xFF	; 255
     f92:	3f 4f       	sbci	r19, 0xFF	; 255
     f94:	2f 77       	andi	r18, 0x7F	; 127
     f96:	30 78       	andi	r19, 0x80	; 128
     f98:	33 23       	and	r19, r19
     f9a:	34 f4       	brge	.+12     	; 0xfa8 <buffer_read+0x32>
     f9c:	21 50       	subi	r18, 0x01	; 1
     f9e:	31 09       	sbc	r19, r1
     fa0:	20 68       	ori	r18, 0x80	; 128
     fa2:	3f 6f       	ori	r19, 0xFF	; 255
     fa4:	2f 5f       	subi	r18, 0xFF	; 255
     fa6:	3f 4f       	sbci	r19, 0xFF	; 255
     fa8:	fc 01       	movw	r30, r24
     faa:	ef 57       	subi	r30, 0x7F	; 127
     fac:	ff 4f       	sbci	r31, 0xFF	; 255
     fae:	20 83       	st	Z, r18
     fb0:	dc 01       	movw	r26, r24
     fb2:	ae 57       	subi	r26, 0x7E	; 126
     fb4:	bf 4f       	sbci	r27, 0xFF	; 255
     fb6:	31 97       	sbiw	r30, 0x01	; 1
     fb8:	81 e0       	ldi	r24, 0x01	; 1
     fba:	90 81       	ld	r25, Z
     fbc:	92 13       	cpse	r25, r18
     fbe:	80 e0       	ldi	r24, 0x00	; 0
     fc0:	8c 93       	st	X, r24
     fc2:	84 2f       	mov	r24, r20
     fc4:	08 95       	ret
     fc6:	80 e0       	ldi	r24, 0x00	; 0
     fc8:	08 95       	ret

00000fca <buffer_empty>:


bool buffer_empty(struct ringbuffer* buffer) {
	return buffer->empty;
     fca:	8e 57       	subi	r24, 0x7E	; 126
     fcc:	9f 4f       	sbci	r25, 0xFF	; 255
}
     fce:	fc 01       	movw	r30, r24
     fd0:	80 81       	ld	r24, Z
     fd2:	08 95       	ret

00000fd4 <__vector_20>:

volatile struct ringbuffer tx_buffer = {{0}, 0, 0, true};
volatile struct ringbuffer rx_buffer = {{0}, 0, 0, true};

//AVR UART Interrupt (Receive and Transmit)
ISR(LIN_TC_vect) {
     fd4:	1f 92       	push	r1
     fd6:	0f 92       	push	r0
     fd8:	0f b6       	in	r0, 0x3f	; 63
     fda:	0f 92       	push	r0
     fdc:	11 24       	eor	r1, r1
     fde:	2f 93       	push	r18
     fe0:	3f 93       	push	r19
     fe2:	4f 93       	push	r20
     fe4:	5f 93       	push	r21
     fe6:	6f 93       	push	r22
     fe8:	7f 93       	push	r23
     fea:	8f 93       	push	r24
     fec:	9f 93       	push	r25
     fee:	af 93       	push	r26
     ff0:	bf 93       	push	r27
     ff2:	ef 93       	push	r30
     ff4:	ff 93       	push	r31
	
	// A byte has been received by the UART
	if(LINSIR & (1 << LRXOK)) {
     ff6:	80 91 c9 00 	lds	r24, 0x00C9	; 0x8000c9 <__TEXT_REGION_LENGTH__+0x7e00c9>
     ffa:	80 ff       	sbrs	r24, 0
     ffc:	0a c0       	rjmp	.+20     	; 0x1012 <__vector_20+0x3e>
		//clear LRXOK
		LINSIR &= ~(1 << LRXOK);
     ffe:	e9 ec       	ldi	r30, 0xC9	; 201
    1000:	f0 e0       	ldi	r31, 0x00	; 0
    1002:	80 81       	ld	r24, Z
    1004:	8e 7f       	andi	r24, 0xFE	; 254
    1006:	80 83       	st	Z, r24
		
		//write buffer
		uint8_t recv = LINDAT;
    1008:	60 91 d2 00 	lds	r22, 0x00D2	; 0x8000d2 <__TEXT_REGION_LENGTH__+0x7e00d2>
		buffer_write(&rx_buffer, recv);	
    100c:	86 e0       	ldi	r24, 0x06	; 6
    100e:	91 e0       	ldi	r25, 0x01	; 1
    1010:	7f df       	rcall	.-258    	; 0xf10 <buffer_write>
	}
	
	// A byte was successfully transmitted by the UART
	if(LINSIR & (1 << LTXOK)) {
    1012:	80 91 c9 00 	lds	r24, 0x00C9	; 0x8000c9 <__TEXT_REGION_LENGTH__+0x7e00c9>
    1016:	81 ff       	sbrs	r24, 1
    1018:	14 c0       	rjmp	.+40     	; 0x1042 <__vector_20+0x6e>
		//clear LTXOK
		LINSIR &= ~(1 << LTXOK);
    101a:	e9 ec       	ldi	r30, 0xC9	; 201
    101c:	f0 e0       	ldi	r31, 0x00	; 0
    101e:	80 81       	ld	r24, Z
    1020:	8d 7f       	andi	r24, 0xFD	; 253
    1022:	80 83       	st	Z, r24
		uint8_t data = buffer_read(&tx_buffer); 
    1024:	89 e8       	ldi	r24, 0x89	; 137
    1026:	91 e0       	ldi	r25, 0x01	; 1
    1028:	a6 df       	rcall	.-180    	; 0xf76 <buffer_read>
		LINDAT = data;
    102a:	80 93 d2 00 	sts	0x00D2, r24	; 0x8000d2 <__TEXT_REGION_LENGTH__+0x7e00d2>
		
		if(buffer_empty(&tx_buffer)) {
    102e:	89 e8       	ldi	r24, 0x89	; 137
    1030:	91 e0       	ldi	r25, 0x01	; 1
    1032:	cb df       	rcall	.-106    	; 0xfca <buffer_empty>
    1034:	88 23       	and	r24, r24
			LINENIR  &= ~(1 << LENTXOK);
    1036:	29 f0       	breq	.+10     	; 0x1042 <__vector_20+0x6e>
    1038:	ea ec       	ldi	r30, 0xCA	; 202
    103a:	f0 e0       	ldi	r31, 0x00	; 0
    103c:	80 81       	ld	r24, Z
    103e:	8d 7f       	andi	r24, 0xFD	; 253
		}
	}
}
    1040:	80 83       	st	Z, r24
    1042:	ff 91       	pop	r31
    1044:	ef 91       	pop	r30
    1046:	bf 91       	pop	r27
    1048:	af 91       	pop	r26
    104a:	9f 91       	pop	r25
    104c:	8f 91       	pop	r24
    104e:	7f 91       	pop	r23
    1050:	6f 91       	pop	r22
    1052:	5f 91       	pop	r21
    1054:	4f 91       	pop	r20
    1056:	3f 91       	pop	r19
    1058:	2f 91       	pop	r18
    105a:	0f 90       	pop	r0
    105c:	0f be       	out	0x3f, r0	; 63
    105e:	0f 90       	pop	r0
    1060:	1f 90       	pop	r1
    1062:	18 95       	reti

00001064 <uart_init>:


void uart_init(uint16_t baud){
    1064:	cf 93       	push	r28
    1066:	df 93       	push	r29
	//Reset LIN/UART hardware
	LINCR = (1 << LSWRES);
    1068:	c8 ec       	ldi	r28, 0xC8	; 200
    106a:	d0 e0       	ldi	r29, 0x00	; 0
    106c:	20 e8       	ldi	r18, 0x80	; 128
    106e:	28 83       	st	Y, r18
	
	//Calculate, and set UART baud rate
	LINBRRH = (((F_CPU / baud) / 16) - 1) >> 8;
    1070:	9c 01       	movw	r18, r24
    1072:	40 e0       	ldi	r20, 0x00	; 0
    1074:	50 e0       	ldi	r21, 0x00	; 0
    1076:	60 e4       	ldi	r22, 0x40	; 64
    1078:	72 e4       	ldi	r23, 0x42	; 66
    107a:	8f e0       	ldi	r24, 0x0F	; 15
    107c:	90 e0       	ldi	r25, 0x00	; 0
    107e:	40 d0       	rcall	.+128    	; 0x1100 <__divmodsi4>
    1080:	da 01       	movw	r26, r20
    1082:	c9 01       	movw	r24, r18
    1084:	01 97       	sbiw	r24, 0x01	; 1
    1086:	a1 09       	sbc	r26, r1
    1088:	b1 09       	sbc	r27, r1
    108a:	89 2f       	mov	r24, r25
    108c:	9a 2f       	mov	r25, r26
    108e:	ab 2f       	mov	r26, r27
    1090:	bb 27       	eor	r27, r27
    1092:	a7 fd       	sbrc	r26, 7
    1094:	ba 95       	dec	r27
    1096:	80 93 ce 00 	sts	0x00CE, r24	; 0x8000ce <__TEXT_REGION_LENGTH__+0x7e00ce>
	LINBRRL = (((F_CPU / baud) / 16) - 1);
    109a:	21 50       	subi	r18, 0x01	; 1
    109c:	20 93 cd 00 	sts	0x00CD, r18	; 0x8000cd <__TEXT_REGION_LENGTH__+0x7e00cd>
	
	//Bit sampling rate/re-sync
	LINBTR = (1 << LDISR) | (16 << LBT0);
    10a0:	80 e9       	ldi	r24, 0x90	; 144
    10a2:	80 93 cc 00 	sts	0x00CC, r24	; 0x8000cc <__TEXT_REGION_LENGTH__+0x7e00cc>

	//RX interrupt
	LINENIR = (1 << LENRXOK);
    10a6:	81 e0       	ldi	r24, 0x01	; 1
    10a8:	80 93 ca 00 	sts	0x00CA, r24	; 0x8000ca <__TEXT_REGION_LENGTH__+0x7e00ca>

	//Enable UART RX & TX
	LINCR = (1 << LENA) | (1 << LCMD2) | (1 << LCMD1) | (1 << LCMD0);
    10ac:	8f e0       	ldi	r24, 0x0F	; 15
    10ae:	88 83       	st	Y, r24

	sei();
    10b0:	78 94       	sei
}
    10b2:	df 91       	pop	r29
    10b4:	cf 91       	pop	r28
    10b6:	08 95       	ret

000010b8 <uart_putc>:
			
int uart_putc(char data, FILE* file) {
    10b8:	cf 93       	push	r28
    10ba:	c8 2f       	mov	r28, r24
	cli();
    10bc:	f8 94       	cli
	// the buffer was empty, enable TX interrupt
	if(!(LINENIR & (1 << LENTXOK))) {
    10be:	80 91 ca 00 	lds	r24, 0x00CA	; 0x8000ca <__TEXT_REGION_LENGTH__+0x7e00ca>
    10c2:	81 fd       	sbrc	r24, 1
    10c4:	08 c0       	rjmp	.+16     	; 0x10d6 <uart_putc+0x1e>
		LINENIR |= (1 << LENTXOK);
    10c6:	ea ec       	ldi	r30, 0xCA	; 202
    10c8:	f0 e0       	ldi	r31, 0x00	; 0
    10ca:	80 81       	ld	r24, Z
    10cc:	82 60       	ori	r24, 0x02	; 2
    10ce:	80 83       	st	Z, r24
		LINDAT = data;
    10d0:	c0 93 d2 00 	sts	0x00D2, r28	; 0x8000d2 <__TEXT_REGION_LENGTH__+0x7e00d2>
    10d4:	04 c0       	rjmp	.+8      	; 0x10de <uart_putc+0x26>
	}
	else {
		// add data to buffer
		buffer_write(&tx_buffer, data);
    10d6:	6c 2f       	mov	r22, r28
    10d8:	89 e8       	ldi	r24, 0x89	; 137
    10da:	91 e0       	ldi	r25, 0x01	; 1
    10dc:	19 df       	rcall	.-462    	; 0xf10 <buffer_write>
	}
	sei();
    10de:	78 94       	sei
	return data;
}
    10e0:	8c 2f       	mov	r24, r28
    10e2:	cc 0f       	add	r28, r28
    10e4:	99 0b       	sbc	r25, r25
    10e6:	cf 91       	pop	r28
    10e8:	08 95       	ret

000010ea <uart_getc>:

uint8_t uart_getc(FILE* file) {
	cli();
    10ea:	f8 94       	cli
	
	int data_read = buffer_read(&rx_buffer);
    10ec:	86 e0       	ldi	r24, 0x06	; 6
    10ee:	91 e0       	ldi	r25, 0x01	; 1
    10f0:	42 df       	rcall	.-380    	; 0xf76 <buffer_read>
    10f2:	90 e0       	ldi	r25, 0x00	; 0
	if(data_read == '\r') data_read = '\n';
    10f4:	8d 30       	cpi	r24, 0x0D	; 13
    10f6:	91 05       	cpc	r25, r1
    10f8:	11 f4       	brne	.+4      	; 0x10fe <uart_getc+0x14>
    10fa:	8a e0       	ldi	r24, 0x0A	; 10
    10fc:	90 e0       	ldi	r25, 0x00	; 0
	
	//while (buffer_empty(&rx_buffer));
	return data_read;
	sei();
    10fe:	08 95       	ret

00001100 <__divmodsi4>:
    1100:	05 2e       	mov	r0, r21
    1102:	97 fb       	bst	r25, 7
    1104:	16 f4       	brtc	.+4      	; 0x110a <__divmodsi4+0xa>
    1106:	00 94       	com	r0
    1108:	0f d0       	rcall	.+30     	; 0x1128 <__negsi2>
    110a:	57 fd       	sbrc	r21, 7
    110c:	05 d0       	rcall	.+10     	; 0x1118 <__divmodsi4_neg2>
    110e:	1a d0       	rcall	.+52     	; 0x1144 <__udivmodsi4>
    1110:	07 fc       	sbrc	r0, 7
    1112:	02 d0       	rcall	.+4      	; 0x1118 <__divmodsi4_neg2>
    1114:	46 f4       	brtc	.+16     	; 0x1126 <__divmodsi4_exit>
    1116:	08 c0       	rjmp	.+16     	; 0x1128 <__negsi2>

00001118 <__divmodsi4_neg2>:
    1118:	50 95       	com	r21
    111a:	40 95       	com	r20
    111c:	30 95       	com	r19
    111e:	21 95       	neg	r18
    1120:	3f 4f       	sbci	r19, 0xFF	; 255
    1122:	4f 4f       	sbci	r20, 0xFF	; 255
    1124:	5f 4f       	sbci	r21, 0xFF	; 255

00001126 <__divmodsi4_exit>:
    1126:	08 95       	ret

00001128 <__negsi2>:
    1128:	90 95       	com	r25
    112a:	80 95       	com	r24
    112c:	70 95       	com	r23
    112e:	61 95       	neg	r22
    1130:	7f 4f       	sbci	r23, 0xFF	; 255
    1132:	8f 4f       	sbci	r24, 0xFF	; 255
    1134:	9f 4f       	sbci	r25, 0xFF	; 255
    1136:	08 95       	ret

00001138 <__tablejump2__>:
    1138:	ee 0f       	add	r30, r30
    113a:	ff 1f       	adc	r31, r31
    113c:	05 90       	lpm	r0, Z+
    113e:	f4 91       	lpm	r31, Z
    1140:	e0 2d       	mov	r30, r0
    1142:	09 94       	ijmp

00001144 <__udivmodsi4>:
    1144:	a1 e2       	ldi	r26, 0x21	; 33
    1146:	1a 2e       	mov	r1, r26
    1148:	aa 1b       	sub	r26, r26
    114a:	bb 1b       	sub	r27, r27
    114c:	fd 01       	movw	r30, r26
    114e:	0d c0       	rjmp	.+26     	; 0x116a <__udivmodsi4_ep>

00001150 <__udivmodsi4_loop>:
    1150:	aa 1f       	adc	r26, r26
    1152:	bb 1f       	adc	r27, r27
    1154:	ee 1f       	adc	r30, r30
    1156:	ff 1f       	adc	r31, r31
    1158:	a2 17       	cp	r26, r18
    115a:	b3 07       	cpc	r27, r19
    115c:	e4 07       	cpc	r30, r20
    115e:	f5 07       	cpc	r31, r21
    1160:	20 f0       	brcs	.+8      	; 0x116a <__udivmodsi4_ep>
    1162:	a2 1b       	sub	r26, r18
    1164:	b3 0b       	sbc	r27, r19
    1166:	e4 0b       	sbc	r30, r20
    1168:	f5 0b       	sbc	r31, r21

0000116a <__udivmodsi4_ep>:
    116a:	66 1f       	adc	r22, r22
    116c:	77 1f       	adc	r23, r23
    116e:	88 1f       	adc	r24, r24
    1170:	99 1f       	adc	r25, r25
    1172:	1a 94       	dec	r1
    1174:	69 f7       	brne	.-38     	; 0x1150 <__udivmodsi4_loop>
    1176:	60 95       	com	r22
    1178:	70 95       	com	r23
    117a:	80 95       	com	r24
    117c:	90 95       	com	r25
    117e:	9b 01       	movw	r18, r22
    1180:	ac 01       	movw	r20, r24
    1182:	bd 01       	movw	r22, r26
    1184:	cf 01       	movw	r24, r30
    1186:	08 95       	ret

00001188 <fdevopen>:
    1188:	0f 93       	push	r16
    118a:	1f 93       	push	r17
    118c:	cf 93       	push	r28
    118e:	df 93       	push	r29
    1190:	00 97       	sbiw	r24, 0x00	; 0
    1192:	31 f4       	brne	.+12     	; 0x11a0 <fdevopen+0x18>
    1194:	61 15       	cp	r22, r1
    1196:	71 05       	cpc	r23, r1
    1198:	19 f4       	brne	.+6      	; 0x11a0 <fdevopen+0x18>
    119a:	80 e0       	ldi	r24, 0x00	; 0
    119c:	90 e0       	ldi	r25, 0x00	; 0
    119e:	39 c0       	rjmp	.+114    	; 0x1212 <fdevopen+0x8a>
    11a0:	8b 01       	movw	r16, r22
    11a2:	ec 01       	movw	r28, r24
    11a4:	6e e0       	ldi	r22, 0x0E	; 14
    11a6:	70 e0       	ldi	r23, 0x00	; 0
    11a8:	81 e0       	ldi	r24, 0x01	; 1
    11aa:	90 e0       	ldi	r25, 0x00	; 0
    11ac:	4c d2       	rcall	.+1176   	; 0x1646 <calloc>
    11ae:	fc 01       	movw	r30, r24
    11b0:	89 2b       	or	r24, r25
    11b2:	99 f3       	breq	.-26     	; 0x119a <fdevopen+0x12>
    11b4:	80 e8       	ldi	r24, 0x80	; 128
    11b6:	83 83       	std	Z+3, r24	; 0x03
    11b8:	01 15       	cp	r16, r1
    11ba:	11 05       	cpc	r17, r1
    11bc:	71 f0       	breq	.+28     	; 0x11da <fdevopen+0x52>
    11be:	13 87       	std	Z+11, r17	; 0x0b
    11c0:	02 87       	std	Z+10, r16	; 0x0a
    11c2:	81 e8       	ldi	r24, 0x81	; 129
    11c4:	83 83       	std	Z+3, r24	; 0x03
    11c6:	80 91 96 02 	lds	r24, 0x0296	; 0x800296 <__iob>
    11ca:	90 91 97 02 	lds	r25, 0x0297	; 0x800297 <__iob+0x1>
    11ce:	89 2b       	or	r24, r25
    11d0:	21 f4       	brne	.+8      	; 0x11da <fdevopen+0x52>
    11d2:	f0 93 97 02 	sts	0x0297, r31	; 0x800297 <__iob+0x1>
    11d6:	e0 93 96 02 	sts	0x0296, r30	; 0x800296 <__iob>
    11da:	20 97       	sbiw	r28, 0x00	; 0
    11dc:	c9 f0       	breq	.+50     	; 0x1210 <fdevopen+0x88>
    11de:	d1 87       	std	Z+9, r29	; 0x09
    11e0:	c0 87       	std	Z+8, r28	; 0x08
    11e2:	83 81       	ldd	r24, Z+3	; 0x03
    11e4:	82 60       	ori	r24, 0x02	; 2
    11e6:	83 83       	std	Z+3, r24	; 0x03
    11e8:	80 91 98 02 	lds	r24, 0x0298	; 0x800298 <__iob+0x2>
    11ec:	90 91 99 02 	lds	r25, 0x0299	; 0x800299 <__iob+0x3>
    11f0:	89 2b       	or	r24, r25
    11f2:	71 f4       	brne	.+28     	; 0x1210 <fdevopen+0x88>
    11f4:	f0 93 99 02 	sts	0x0299, r31	; 0x800299 <__iob+0x3>
    11f8:	e0 93 98 02 	sts	0x0298, r30	; 0x800298 <__iob+0x2>
    11fc:	80 91 9a 02 	lds	r24, 0x029A	; 0x80029a <__iob+0x4>
    1200:	90 91 9b 02 	lds	r25, 0x029B	; 0x80029b <__iob+0x5>
    1204:	89 2b       	or	r24, r25
    1206:	21 f4       	brne	.+8      	; 0x1210 <fdevopen+0x88>
    1208:	f0 93 9b 02 	sts	0x029B, r31	; 0x80029b <__iob+0x5>
    120c:	e0 93 9a 02 	sts	0x029A, r30	; 0x80029a <__iob+0x4>
    1210:	cf 01       	movw	r24, r30
    1212:	df 91       	pop	r29
    1214:	cf 91       	pop	r28
    1216:	1f 91       	pop	r17
    1218:	0f 91       	pop	r16
    121a:	08 95       	ret

0000121c <printf>:
    121c:	a0 e0       	ldi	r26, 0x00	; 0
    121e:	b0 e0       	ldi	r27, 0x00	; 0
    1220:	e3 e1       	ldi	r30, 0x13	; 19
    1222:	f9 e0       	ldi	r31, 0x09	; 9
    1224:	12 c4       	rjmp	.+2084   	; 0x1a4a <__prologue_saves__+0x20>
    1226:	ae 01       	movw	r20, r28
    1228:	4b 5f       	subi	r20, 0xFB	; 251
    122a:	5f 4f       	sbci	r21, 0xFF	; 255
    122c:	fa 01       	movw	r30, r20
    122e:	61 91       	ld	r22, Z+
    1230:	71 91       	ld	r23, Z+
    1232:	af 01       	movw	r20, r30
    1234:	80 91 98 02 	lds	r24, 0x0298	; 0x800298 <__iob+0x2>
    1238:	90 91 99 02 	lds	r25, 0x0299	; 0x800299 <__iob+0x3>
    123c:	32 d0       	rcall	.+100    	; 0x12a2 <vfprintf>
    123e:	e2 e0       	ldi	r30, 0x02	; 2
    1240:	20 c4       	rjmp	.+2112   	; 0x1a82 <__epilogue_restores__+0x20>

00001242 <puts>:
    1242:	0f 93       	push	r16
    1244:	1f 93       	push	r17
    1246:	cf 93       	push	r28
    1248:	df 93       	push	r29
    124a:	e0 91 98 02 	lds	r30, 0x0298	; 0x800298 <__iob+0x2>
    124e:	f0 91 99 02 	lds	r31, 0x0299	; 0x800299 <__iob+0x3>
    1252:	23 81       	ldd	r18, Z+3	; 0x03
    1254:	21 ff       	sbrs	r18, 1
    1256:	1b c0       	rjmp	.+54     	; 0x128e <puts+0x4c>
    1258:	8c 01       	movw	r16, r24
    125a:	d0 e0       	ldi	r29, 0x00	; 0
    125c:	c0 e0       	ldi	r28, 0x00	; 0
    125e:	f8 01       	movw	r30, r16
    1260:	81 91       	ld	r24, Z+
    1262:	8f 01       	movw	r16, r30
    1264:	60 91 98 02 	lds	r22, 0x0298	; 0x800298 <__iob+0x2>
    1268:	70 91 99 02 	lds	r23, 0x0299	; 0x800299 <__iob+0x3>
    126c:	db 01       	movw	r26, r22
    126e:	18 96       	adiw	r26, 0x08	; 8
    1270:	ed 91       	ld	r30, X+
    1272:	fc 91       	ld	r31, X
    1274:	19 97       	sbiw	r26, 0x09	; 9
    1276:	88 23       	and	r24, r24
    1278:	31 f0       	breq	.+12     	; 0x1286 <puts+0x44>
    127a:	09 95       	icall
    127c:	89 2b       	or	r24, r25
    127e:	79 f3       	breq	.-34     	; 0x125e <puts+0x1c>
    1280:	df ef       	ldi	r29, 0xFF	; 255
    1282:	cf ef       	ldi	r28, 0xFF	; 255
    1284:	ec cf       	rjmp	.-40     	; 0x125e <puts+0x1c>
    1286:	8a e0       	ldi	r24, 0x0A	; 10
    1288:	09 95       	icall
    128a:	89 2b       	or	r24, r25
    128c:	19 f0       	breq	.+6      	; 0x1294 <puts+0x52>
    128e:	8f ef       	ldi	r24, 0xFF	; 255
    1290:	9f ef       	ldi	r25, 0xFF	; 255
    1292:	02 c0       	rjmp	.+4      	; 0x1298 <puts+0x56>
    1294:	8d 2f       	mov	r24, r29
    1296:	9c 2f       	mov	r25, r28
    1298:	df 91       	pop	r29
    129a:	cf 91       	pop	r28
    129c:	1f 91       	pop	r17
    129e:	0f 91       	pop	r16
    12a0:	08 95       	ret

000012a2 <vfprintf>:
    12a2:	ab e0       	ldi	r26, 0x0B	; 11
    12a4:	b0 e0       	ldi	r27, 0x00	; 0
    12a6:	e6 e5       	ldi	r30, 0x56	; 86
    12a8:	f9 e0       	ldi	r31, 0x09	; 9
    12aa:	bf c3       	rjmp	.+1918   	; 0x1a2a <__prologue_saves__>
    12ac:	6c 01       	movw	r12, r24
    12ae:	7b 01       	movw	r14, r22
    12b0:	8a 01       	movw	r16, r20
    12b2:	fc 01       	movw	r30, r24
    12b4:	17 82       	std	Z+7, r1	; 0x07
    12b6:	16 82       	std	Z+6, r1	; 0x06
    12b8:	83 81       	ldd	r24, Z+3	; 0x03
    12ba:	81 ff       	sbrs	r24, 1
    12bc:	bf c1       	rjmp	.+894    	; 0x163c <vfprintf+0x39a>
    12be:	ce 01       	movw	r24, r28
    12c0:	01 96       	adiw	r24, 0x01	; 1
    12c2:	3c 01       	movw	r6, r24
    12c4:	f6 01       	movw	r30, r12
    12c6:	93 81       	ldd	r25, Z+3	; 0x03
    12c8:	f7 01       	movw	r30, r14
    12ca:	93 fd       	sbrc	r25, 3
    12cc:	85 91       	lpm	r24, Z+
    12ce:	93 ff       	sbrs	r25, 3
    12d0:	81 91       	ld	r24, Z+
    12d2:	7f 01       	movw	r14, r30
    12d4:	88 23       	and	r24, r24
    12d6:	09 f4       	brne	.+2      	; 0x12da <vfprintf+0x38>
    12d8:	ad c1       	rjmp	.+858    	; 0x1634 <vfprintf+0x392>
    12da:	85 32       	cpi	r24, 0x25	; 37
    12dc:	39 f4       	brne	.+14     	; 0x12ec <vfprintf+0x4a>
    12de:	93 fd       	sbrc	r25, 3
    12e0:	85 91       	lpm	r24, Z+
    12e2:	93 ff       	sbrs	r25, 3
    12e4:	81 91       	ld	r24, Z+
    12e6:	7f 01       	movw	r14, r30
    12e8:	85 32       	cpi	r24, 0x25	; 37
    12ea:	21 f4       	brne	.+8      	; 0x12f4 <vfprintf+0x52>
    12ec:	b6 01       	movw	r22, r12
    12ee:	90 e0       	ldi	r25, 0x00	; 0
    12f0:	02 d3       	rcall	.+1540   	; 0x18f6 <fputc>
    12f2:	e8 cf       	rjmp	.-48     	; 0x12c4 <vfprintf+0x22>
    12f4:	91 2c       	mov	r9, r1
    12f6:	21 2c       	mov	r2, r1
    12f8:	31 2c       	mov	r3, r1
    12fa:	ff e1       	ldi	r31, 0x1F	; 31
    12fc:	f3 15       	cp	r31, r3
    12fe:	d8 f0       	brcs	.+54     	; 0x1336 <vfprintf+0x94>
    1300:	8b 32       	cpi	r24, 0x2B	; 43
    1302:	79 f0       	breq	.+30     	; 0x1322 <vfprintf+0x80>
    1304:	38 f4       	brcc	.+14     	; 0x1314 <vfprintf+0x72>
    1306:	80 32       	cpi	r24, 0x20	; 32
    1308:	79 f0       	breq	.+30     	; 0x1328 <vfprintf+0x86>
    130a:	83 32       	cpi	r24, 0x23	; 35
    130c:	a1 f4       	brne	.+40     	; 0x1336 <vfprintf+0x94>
    130e:	23 2d       	mov	r18, r3
    1310:	20 61       	ori	r18, 0x10	; 16
    1312:	1d c0       	rjmp	.+58     	; 0x134e <vfprintf+0xac>
    1314:	8d 32       	cpi	r24, 0x2D	; 45
    1316:	61 f0       	breq	.+24     	; 0x1330 <vfprintf+0x8e>
    1318:	80 33       	cpi	r24, 0x30	; 48
    131a:	69 f4       	brne	.+26     	; 0x1336 <vfprintf+0x94>
    131c:	23 2d       	mov	r18, r3
    131e:	21 60       	ori	r18, 0x01	; 1
    1320:	16 c0       	rjmp	.+44     	; 0x134e <vfprintf+0xac>
    1322:	83 2d       	mov	r24, r3
    1324:	82 60       	ori	r24, 0x02	; 2
    1326:	38 2e       	mov	r3, r24
    1328:	e3 2d       	mov	r30, r3
    132a:	e4 60       	ori	r30, 0x04	; 4
    132c:	3e 2e       	mov	r3, r30
    132e:	2a c0       	rjmp	.+84     	; 0x1384 <vfprintf+0xe2>
    1330:	f3 2d       	mov	r31, r3
    1332:	f8 60       	ori	r31, 0x08	; 8
    1334:	1d c0       	rjmp	.+58     	; 0x1370 <vfprintf+0xce>
    1336:	37 fc       	sbrc	r3, 7
    1338:	2d c0       	rjmp	.+90     	; 0x1394 <vfprintf+0xf2>
    133a:	20 ed       	ldi	r18, 0xD0	; 208
    133c:	28 0f       	add	r18, r24
    133e:	2a 30       	cpi	r18, 0x0A	; 10
    1340:	40 f0       	brcs	.+16     	; 0x1352 <vfprintf+0xb0>
    1342:	8e 32       	cpi	r24, 0x2E	; 46
    1344:	b9 f4       	brne	.+46     	; 0x1374 <vfprintf+0xd2>
    1346:	36 fc       	sbrc	r3, 6
    1348:	75 c1       	rjmp	.+746    	; 0x1634 <vfprintf+0x392>
    134a:	23 2d       	mov	r18, r3
    134c:	20 64       	ori	r18, 0x40	; 64
    134e:	32 2e       	mov	r3, r18
    1350:	19 c0       	rjmp	.+50     	; 0x1384 <vfprintf+0xe2>
    1352:	36 fe       	sbrs	r3, 6
    1354:	06 c0       	rjmp	.+12     	; 0x1362 <vfprintf+0xc0>
    1356:	8a e0       	ldi	r24, 0x0A	; 10
    1358:	98 9e       	mul	r9, r24
    135a:	20 0d       	add	r18, r0
    135c:	11 24       	eor	r1, r1
    135e:	92 2e       	mov	r9, r18
    1360:	11 c0       	rjmp	.+34     	; 0x1384 <vfprintf+0xe2>
    1362:	ea e0       	ldi	r30, 0x0A	; 10
    1364:	2e 9e       	mul	r2, r30
    1366:	20 0d       	add	r18, r0
    1368:	11 24       	eor	r1, r1
    136a:	22 2e       	mov	r2, r18
    136c:	f3 2d       	mov	r31, r3
    136e:	f0 62       	ori	r31, 0x20	; 32
    1370:	3f 2e       	mov	r3, r31
    1372:	08 c0       	rjmp	.+16     	; 0x1384 <vfprintf+0xe2>
    1374:	8c 36       	cpi	r24, 0x6C	; 108
    1376:	21 f4       	brne	.+8      	; 0x1380 <vfprintf+0xde>
    1378:	83 2d       	mov	r24, r3
    137a:	80 68       	ori	r24, 0x80	; 128
    137c:	38 2e       	mov	r3, r24
    137e:	02 c0       	rjmp	.+4      	; 0x1384 <vfprintf+0xe2>
    1380:	88 36       	cpi	r24, 0x68	; 104
    1382:	41 f4       	brne	.+16     	; 0x1394 <vfprintf+0xf2>
    1384:	f7 01       	movw	r30, r14
    1386:	93 fd       	sbrc	r25, 3
    1388:	85 91       	lpm	r24, Z+
    138a:	93 ff       	sbrs	r25, 3
    138c:	81 91       	ld	r24, Z+
    138e:	7f 01       	movw	r14, r30
    1390:	81 11       	cpse	r24, r1
    1392:	b3 cf       	rjmp	.-154    	; 0x12fa <vfprintf+0x58>
    1394:	98 2f       	mov	r25, r24
    1396:	9f 7d       	andi	r25, 0xDF	; 223
    1398:	95 54       	subi	r25, 0x45	; 69
    139a:	93 30       	cpi	r25, 0x03	; 3
    139c:	28 f4       	brcc	.+10     	; 0x13a8 <vfprintf+0x106>
    139e:	0c 5f       	subi	r16, 0xFC	; 252
    13a0:	1f 4f       	sbci	r17, 0xFF	; 255
    13a2:	9f e3       	ldi	r25, 0x3F	; 63
    13a4:	99 83       	std	Y+1, r25	; 0x01
    13a6:	0d c0       	rjmp	.+26     	; 0x13c2 <vfprintf+0x120>
    13a8:	83 36       	cpi	r24, 0x63	; 99
    13aa:	31 f0       	breq	.+12     	; 0x13b8 <vfprintf+0x116>
    13ac:	83 37       	cpi	r24, 0x73	; 115
    13ae:	71 f0       	breq	.+28     	; 0x13cc <vfprintf+0x12a>
    13b0:	83 35       	cpi	r24, 0x53	; 83
    13b2:	09 f0       	breq	.+2      	; 0x13b6 <vfprintf+0x114>
    13b4:	55 c0       	rjmp	.+170    	; 0x1460 <vfprintf+0x1be>
    13b6:	20 c0       	rjmp	.+64     	; 0x13f8 <vfprintf+0x156>
    13b8:	f8 01       	movw	r30, r16
    13ba:	80 81       	ld	r24, Z
    13bc:	89 83       	std	Y+1, r24	; 0x01
    13be:	0e 5f       	subi	r16, 0xFE	; 254
    13c0:	1f 4f       	sbci	r17, 0xFF	; 255
    13c2:	88 24       	eor	r8, r8
    13c4:	83 94       	inc	r8
    13c6:	91 2c       	mov	r9, r1
    13c8:	53 01       	movw	r10, r6
    13ca:	12 c0       	rjmp	.+36     	; 0x13f0 <vfprintf+0x14e>
    13cc:	28 01       	movw	r4, r16
    13ce:	f2 e0       	ldi	r31, 0x02	; 2
    13d0:	4f 0e       	add	r4, r31
    13d2:	51 1c       	adc	r5, r1
    13d4:	f8 01       	movw	r30, r16
    13d6:	a0 80       	ld	r10, Z
    13d8:	b1 80       	ldd	r11, Z+1	; 0x01
    13da:	36 fe       	sbrs	r3, 6
    13dc:	03 c0       	rjmp	.+6      	; 0x13e4 <vfprintf+0x142>
    13de:	69 2d       	mov	r22, r9
    13e0:	70 e0       	ldi	r23, 0x00	; 0
    13e2:	02 c0       	rjmp	.+4      	; 0x13e8 <vfprintf+0x146>
    13e4:	6f ef       	ldi	r22, 0xFF	; 255
    13e6:	7f ef       	ldi	r23, 0xFF	; 255
    13e8:	c5 01       	movw	r24, r10
    13ea:	7a d2       	rcall	.+1268   	; 0x18e0 <strnlen>
    13ec:	4c 01       	movw	r8, r24
    13ee:	82 01       	movw	r16, r4
    13f0:	f3 2d       	mov	r31, r3
    13f2:	ff 77       	andi	r31, 0x7F	; 127
    13f4:	3f 2e       	mov	r3, r31
    13f6:	15 c0       	rjmp	.+42     	; 0x1422 <vfprintf+0x180>
    13f8:	28 01       	movw	r4, r16
    13fa:	22 e0       	ldi	r18, 0x02	; 2
    13fc:	42 0e       	add	r4, r18
    13fe:	51 1c       	adc	r5, r1
    1400:	f8 01       	movw	r30, r16
    1402:	a0 80       	ld	r10, Z
    1404:	b1 80       	ldd	r11, Z+1	; 0x01
    1406:	36 fe       	sbrs	r3, 6
    1408:	03 c0       	rjmp	.+6      	; 0x1410 <vfprintf+0x16e>
    140a:	69 2d       	mov	r22, r9
    140c:	70 e0       	ldi	r23, 0x00	; 0
    140e:	02 c0       	rjmp	.+4      	; 0x1414 <vfprintf+0x172>
    1410:	6f ef       	ldi	r22, 0xFF	; 255
    1412:	7f ef       	ldi	r23, 0xFF	; 255
    1414:	c5 01       	movw	r24, r10
    1416:	52 d2       	rcall	.+1188   	; 0x18bc <strnlen_P>
    1418:	4c 01       	movw	r8, r24
    141a:	f3 2d       	mov	r31, r3
    141c:	f0 68       	ori	r31, 0x80	; 128
    141e:	3f 2e       	mov	r3, r31
    1420:	82 01       	movw	r16, r4
    1422:	33 fc       	sbrc	r3, 3
    1424:	19 c0       	rjmp	.+50     	; 0x1458 <vfprintf+0x1b6>
    1426:	82 2d       	mov	r24, r2
    1428:	90 e0       	ldi	r25, 0x00	; 0
    142a:	88 16       	cp	r8, r24
    142c:	99 06       	cpc	r9, r25
    142e:	a0 f4       	brcc	.+40     	; 0x1458 <vfprintf+0x1b6>
    1430:	b6 01       	movw	r22, r12
    1432:	80 e2       	ldi	r24, 0x20	; 32
    1434:	90 e0       	ldi	r25, 0x00	; 0
    1436:	5f d2       	rcall	.+1214   	; 0x18f6 <fputc>
    1438:	2a 94       	dec	r2
    143a:	f5 cf       	rjmp	.-22     	; 0x1426 <vfprintf+0x184>
    143c:	f5 01       	movw	r30, r10
    143e:	37 fc       	sbrc	r3, 7
    1440:	85 91       	lpm	r24, Z+
    1442:	37 fe       	sbrs	r3, 7
    1444:	81 91       	ld	r24, Z+
    1446:	5f 01       	movw	r10, r30
    1448:	b6 01       	movw	r22, r12
    144a:	90 e0       	ldi	r25, 0x00	; 0
    144c:	54 d2       	rcall	.+1192   	; 0x18f6 <fputc>
    144e:	21 10       	cpse	r2, r1
    1450:	2a 94       	dec	r2
    1452:	21 e0       	ldi	r18, 0x01	; 1
    1454:	82 1a       	sub	r8, r18
    1456:	91 08       	sbc	r9, r1
    1458:	81 14       	cp	r8, r1
    145a:	91 04       	cpc	r9, r1
    145c:	79 f7       	brne	.-34     	; 0x143c <vfprintf+0x19a>
    145e:	e1 c0       	rjmp	.+450    	; 0x1622 <vfprintf+0x380>
    1460:	84 36       	cpi	r24, 0x64	; 100
    1462:	11 f0       	breq	.+4      	; 0x1468 <vfprintf+0x1c6>
    1464:	89 36       	cpi	r24, 0x69	; 105
    1466:	39 f5       	brne	.+78     	; 0x14b6 <vfprintf+0x214>
    1468:	f8 01       	movw	r30, r16
    146a:	37 fe       	sbrs	r3, 7
    146c:	07 c0       	rjmp	.+14     	; 0x147c <vfprintf+0x1da>
    146e:	60 81       	ld	r22, Z
    1470:	71 81       	ldd	r23, Z+1	; 0x01
    1472:	82 81       	ldd	r24, Z+2	; 0x02
    1474:	93 81       	ldd	r25, Z+3	; 0x03
    1476:	0c 5f       	subi	r16, 0xFC	; 252
    1478:	1f 4f       	sbci	r17, 0xFF	; 255
    147a:	08 c0       	rjmp	.+16     	; 0x148c <vfprintf+0x1ea>
    147c:	60 81       	ld	r22, Z
    147e:	71 81       	ldd	r23, Z+1	; 0x01
    1480:	07 2e       	mov	r0, r23
    1482:	00 0c       	add	r0, r0
    1484:	88 0b       	sbc	r24, r24
    1486:	99 0b       	sbc	r25, r25
    1488:	0e 5f       	subi	r16, 0xFE	; 254
    148a:	1f 4f       	sbci	r17, 0xFF	; 255
    148c:	f3 2d       	mov	r31, r3
    148e:	ff 76       	andi	r31, 0x6F	; 111
    1490:	3f 2e       	mov	r3, r31
    1492:	97 ff       	sbrs	r25, 7
    1494:	09 c0       	rjmp	.+18     	; 0x14a8 <vfprintf+0x206>
    1496:	90 95       	com	r25
    1498:	80 95       	com	r24
    149a:	70 95       	com	r23
    149c:	61 95       	neg	r22
    149e:	7f 4f       	sbci	r23, 0xFF	; 255
    14a0:	8f 4f       	sbci	r24, 0xFF	; 255
    14a2:	9f 4f       	sbci	r25, 0xFF	; 255
    14a4:	f0 68       	ori	r31, 0x80	; 128
    14a6:	3f 2e       	mov	r3, r31
    14a8:	2a e0       	ldi	r18, 0x0A	; 10
    14aa:	30 e0       	ldi	r19, 0x00	; 0
    14ac:	a3 01       	movw	r20, r6
    14ae:	5f d2       	rcall	.+1214   	; 0x196e <__ultoa_invert>
    14b0:	88 2e       	mov	r8, r24
    14b2:	86 18       	sub	r8, r6
    14b4:	44 c0       	rjmp	.+136    	; 0x153e <vfprintf+0x29c>
    14b6:	85 37       	cpi	r24, 0x75	; 117
    14b8:	31 f4       	brne	.+12     	; 0x14c6 <vfprintf+0x224>
    14ba:	23 2d       	mov	r18, r3
    14bc:	2f 7e       	andi	r18, 0xEF	; 239
    14be:	b2 2e       	mov	r11, r18
    14c0:	2a e0       	ldi	r18, 0x0A	; 10
    14c2:	30 e0       	ldi	r19, 0x00	; 0
    14c4:	25 c0       	rjmp	.+74     	; 0x1510 <vfprintf+0x26e>
    14c6:	93 2d       	mov	r25, r3
    14c8:	99 7f       	andi	r25, 0xF9	; 249
    14ca:	b9 2e       	mov	r11, r25
    14cc:	8f 36       	cpi	r24, 0x6F	; 111
    14ce:	c1 f0       	breq	.+48     	; 0x1500 <vfprintf+0x25e>
    14d0:	18 f4       	brcc	.+6      	; 0x14d8 <vfprintf+0x236>
    14d2:	88 35       	cpi	r24, 0x58	; 88
    14d4:	79 f0       	breq	.+30     	; 0x14f4 <vfprintf+0x252>
    14d6:	ae c0       	rjmp	.+348    	; 0x1634 <vfprintf+0x392>
    14d8:	80 37       	cpi	r24, 0x70	; 112
    14da:	19 f0       	breq	.+6      	; 0x14e2 <vfprintf+0x240>
    14dc:	88 37       	cpi	r24, 0x78	; 120
    14de:	21 f0       	breq	.+8      	; 0x14e8 <vfprintf+0x246>
    14e0:	a9 c0       	rjmp	.+338    	; 0x1634 <vfprintf+0x392>
    14e2:	e9 2f       	mov	r30, r25
    14e4:	e0 61       	ori	r30, 0x10	; 16
    14e6:	be 2e       	mov	r11, r30
    14e8:	b4 fe       	sbrs	r11, 4
    14ea:	0d c0       	rjmp	.+26     	; 0x1506 <vfprintf+0x264>
    14ec:	fb 2d       	mov	r31, r11
    14ee:	f4 60       	ori	r31, 0x04	; 4
    14f0:	bf 2e       	mov	r11, r31
    14f2:	09 c0       	rjmp	.+18     	; 0x1506 <vfprintf+0x264>
    14f4:	34 fe       	sbrs	r3, 4
    14f6:	0a c0       	rjmp	.+20     	; 0x150c <vfprintf+0x26a>
    14f8:	29 2f       	mov	r18, r25
    14fa:	26 60       	ori	r18, 0x06	; 6
    14fc:	b2 2e       	mov	r11, r18
    14fe:	06 c0       	rjmp	.+12     	; 0x150c <vfprintf+0x26a>
    1500:	28 e0       	ldi	r18, 0x08	; 8
    1502:	30 e0       	ldi	r19, 0x00	; 0
    1504:	05 c0       	rjmp	.+10     	; 0x1510 <vfprintf+0x26e>
    1506:	20 e1       	ldi	r18, 0x10	; 16
    1508:	30 e0       	ldi	r19, 0x00	; 0
    150a:	02 c0       	rjmp	.+4      	; 0x1510 <vfprintf+0x26e>
    150c:	20 e1       	ldi	r18, 0x10	; 16
    150e:	32 e0       	ldi	r19, 0x02	; 2
    1510:	f8 01       	movw	r30, r16
    1512:	b7 fe       	sbrs	r11, 7
    1514:	07 c0       	rjmp	.+14     	; 0x1524 <vfprintf+0x282>
    1516:	60 81       	ld	r22, Z
    1518:	71 81       	ldd	r23, Z+1	; 0x01
    151a:	82 81       	ldd	r24, Z+2	; 0x02
    151c:	93 81       	ldd	r25, Z+3	; 0x03
    151e:	0c 5f       	subi	r16, 0xFC	; 252
    1520:	1f 4f       	sbci	r17, 0xFF	; 255
    1522:	06 c0       	rjmp	.+12     	; 0x1530 <vfprintf+0x28e>
    1524:	60 81       	ld	r22, Z
    1526:	71 81       	ldd	r23, Z+1	; 0x01
    1528:	80 e0       	ldi	r24, 0x00	; 0
    152a:	90 e0       	ldi	r25, 0x00	; 0
    152c:	0e 5f       	subi	r16, 0xFE	; 254
    152e:	1f 4f       	sbci	r17, 0xFF	; 255
    1530:	a3 01       	movw	r20, r6
    1532:	1d d2       	rcall	.+1082   	; 0x196e <__ultoa_invert>
    1534:	88 2e       	mov	r8, r24
    1536:	86 18       	sub	r8, r6
    1538:	fb 2d       	mov	r31, r11
    153a:	ff 77       	andi	r31, 0x7F	; 127
    153c:	3f 2e       	mov	r3, r31
    153e:	36 fe       	sbrs	r3, 6
    1540:	0d c0       	rjmp	.+26     	; 0x155c <vfprintf+0x2ba>
    1542:	23 2d       	mov	r18, r3
    1544:	2e 7f       	andi	r18, 0xFE	; 254
    1546:	a2 2e       	mov	r10, r18
    1548:	89 14       	cp	r8, r9
    154a:	58 f4       	brcc	.+22     	; 0x1562 <vfprintf+0x2c0>
    154c:	34 fe       	sbrs	r3, 4
    154e:	0b c0       	rjmp	.+22     	; 0x1566 <vfprintf+0x2c4>
    1550:	32 fc       	sbrc	r3, 2
    1552:	09 c0       	rjmp	.+18     	; 0x1566 <vfprintf+0x2c4>
    1554:	83 2d       	mov	r24, r3
    1556:	8e 7e       	andi	r24, 0xEE	; 238
    1558:	a8 2e       	mov	r10, r24
    155a:	05 c0       	rjmp	.+10     	; 0x1566 <vfprintf+0x2c4>
    155c:	b8 2c       	mov	r11, r8
    155e:	a3 2c       	mov	r10, r3
    1560:	03 c0       	rjmp	.+6      	; 0x1568 <vfprintf+0x2c6>
    1562:	b8 2c       	mov	r11, r8
    1564:	01 c0       	rjmp	.+2      	; 0x1568 <vfprintf+0x2c6>
    1566:	b9 2c       	mov	r11, r9
    1568:	a4 fe       	sbrs	r10, 4
    156a:	0f c0       	rjmp	.+30     	; 0x158a <vfprintf+0x2e8>
    156c:	fe 01       	movw	r30, r28
    156e:	e8 0d       	add	r30, r8
    1570:	f1 1d       	adc	r31, r1
    1572:	80 81       	ld	r24, Z
    1574:	80 33       	cpi	r24, 0x30	; 48
    1576:	21 f4       	brne	.+8      	; 0x1580 <vfprintf+0x2de>
    1578:	9a 2d       	mov	r25, r10
    157a:	99 7e       	andi	r25, 0xE9	; 233
    157c:	a9 2e       	mov	r10, r25
    157e:	09 c0       	rjmp	.+18     	; 0x1592 <vfprintf+0x2f0>
    1580:	a2 fe       	sbrs	r10, 2
    1582:	06 c0       	rjmp	.+12     	; 0x1590 <vfprintf+0x2ee>
    1584:	b3 94       	inc	r11
    1586:	b3 94       	inc	r11
    1588:	04 c0       	rjmp	.+8      	; 0x1592 <vfprintf+0x2f0>
    158a:	8a 2d       	mov	r24, r10
    158c:	86 78       	andi	r24, 0x86	; 134
    158e:	09 f0       	breq	.+2      	; 0x1592 <vfprintf+0x2f0>
    1590:	b3 94       	inc	r11
    1592:	a3 fc       	sbrc	r10, 3
    1594:	10 c0       	rjmp	.+32     	; 0x15b6 <vfprintf+0x314>
    1596:	a0 fe       	sbrs	r10, 0
    1598:	06 c0       	rjmp	.+12     	; 0x15a6 <vfprintf+0x304>
    159a:	b2 14       	cp	r11, r2
    159c:	80 f4       	brcc	.+32     	; 0x15be <vfprintf+0x31c>
    159e:	28 0c       	add	r2, r8
    15a0:	92 2c       	mov	r9, r2
    15a2:	9b 18       	sub	r9, r11
    15a4:	0d c0       	rjmp	.+26     	; 0x15c0 <vfprintf+0x31e>
    15a6:	b2 14       	cp	r11, r2
    15a8:	58 f4       	brcc	.+22     	; 0x15c0 <vfprintf+0x31e>
    15aa:	b6 01       	movw	r22, r12
    15ac:	80 e2       	ldi	r24, 0x20	; 32
    15ae:	90 e0       	ldi	r25, 0x00	; 0
    15b0:	a2 d1       	rcall	.+836    	; 0x18f6 <fputc>
    15b2:	b3 94       	inc	r11
    15b4:	f8 cf       	rjmp	.-16     	; 0x15a6 <vfprintf+0x304>
    15b6:	b2 14       	cp	r11, r2
    15b8:	18 f4       	brcc	.+6      	; 0x15c0 <vfprintf+0x31e>
    15ba:	2b 18       	sub	r2, r11
    15bc:	02 c0       	rjmp	.+4      	; 0x15c2 <vfprintf+0x320>
    15be:	98 2c       	mov	r9, r8
    15c0:	21 2c       	mov	r2, r1
    15c2:	a4 fe       	sbrs	r10, 4
    15c4:	0f c0       	rjmp	.+30     	; 0x15e4 <vfprintf+0x342>
    15c6:	b6 01       	movw	r22, r12
    15c8:	80 e3       	ldi	r24, 0x30	; 48
    15ca:	90 e0       	ldi	r25, 0x00	; 0
    15cc:	94 d1       	rcall	.+808    	; 0x18f6 <fputc>
    15ce:	a2 fe       	sbrs	r10, 2
    15d0:	16 c0       	rjmp	.+44     	; 0x15fe <vfprintf+0x35c>
    15d2:	a1 fc       	sbrc	r10, 1
    15d4:	03 c0       	rjmp	.+6      	; 0x15dc <vfprintf+0x33a>
    15d6:	88 e7       	ldi	r24, 0x78	; 120
    15d8:	90 e0       	ldi	r25, 0x00	; 0
    15da:	02 c0       	rjmp	.+4      	; 0x15e0 <vfprintf+0x33e>
    15dc:	88 e5       	ldi	r24, 0x58	; 88
    15de:	90 e0       	ldi	r25, 0x00	; 0
    15e0:	b6 01       	movw	r22, r12
    15e2:	0c c0       	rjmp	.+24     	; 0x15fc <vfprintf+0x35a>
    15e4:	8a 2d       	mov	r24, r10
    15e6:	86 78       	andi	r24, 0x86	; 134
    15e8:	51 f0       	breq	.+20     	; 0x15fe <vfprintf+0x35c>
    15ea:	a1 fe       	sbrs	r10, 1
    15ec:	02 c0       	rjmp	.+4      	; 0x15f2 <vfprintf+0x350>
    15ee:	8b e2       	ldi	r24, 0x2B	; 43
    15f0:	01 c0       	rjmp	.+2      	; 0x15f4 <vfprintf+0x352>
    15f2:	80 e2       	ldi	r24, 0x20	; 32
    15f4:	a7 fc       	sbrc	r10, 7
    15f6:	8d e2       	ldi	r24, 0x2D	; 45
    15f8:	b6 01       	movw	r22, r12
    15fa:	90 e0       	ldi	r25, 0x00	; 0
    15fc:	7c d1       	rcall	.+760    	; 0x18f6 <fputc>
    15fe:	89 14       	cp	r8, r9
    1600:	30 f4       	brcc	.+12     	; 0x160e <vfprintf+0x36c>
    1602:	b6 01       	movw	r22, r12
    1604:	80 e3       	ldi	r24, 0x30	; 48
    1606:	90 e0       	ldi	r25, 0x00	; 0
    1608:	76 d1       	rcall	.+748    	; 0x18f6 <fputc>
    160a:	9a 94       	dec	r9
    160c:	f8 cf       	rjmp	.-16     	; 0x15fe <vfprintf+0x35c>
    160e:	8a 94       	dec	r8
    1610:	f3 01       	movw	r30, r6
    1612:	e8 0d       	add	r30, r8
    1614:	f1 1d       	adc	r31, r1
    1616:	80 81       	ld	r24, Z
    1618:	b6 01       	movw	r22, r12
    161a:	90 e0       	ldi	r25, 0x00	; 0
    161c:	6c d1       	rcall	.+728    	; 0x18f6 <fputc>
    161e:	81 10       	cpse	r8, r1
    1620:	f6 cf       	rjmp	.-20     	; 0x160e <vfprintf+0x36c>
    1622:	22 20       	and	r2, r2
    1624:	09 f4       	brne	.+2      	; 0x1628 <vfprintf+0x386>
    1626:	4e ce       	rjmp	.-868    	; 0x12c4 <vfprintf+0x22>
    1628:	b6 01       	movw	r22, r12
    162a:	80 e2       	ldi	r24, 0x20	; 32
    162c:	90 e0       	ldi	r25, 0x00	; 0
    162e:	63 d1       	rcall	.+710    	; 0x18f6 <fputc>
    1630:	2a 94       	dec	r2
    1632:	f7 cf       	rjmp	.-18     	; 0x1622 <vfprintf+0x380>
    1634:	f6 01       	movw	r30, r12
    1636:	86 81       	ldd	r24, Z+6	; 0x06
    1638:	97 81       	ldd	r25, Z+7	; 0x07
    163a:	02 c0       	rjmp	.+4      	; 0x1640 <vfprintf+0x39e>
    163c:	8f ef       	ldi	r24, 0xFF	; 255
    163e:	9f ef       	ldi	r25, 0xFF	; 255
    1640:	2b 96       	adiw	r28, 0x0b	; 11
    1642:	e2 e1       	ldi	r30, 0x12	; 18
    1644:	0e c2       	rjmp	.+1052   	; 0x1a62 <__epilogue_restores__>

00001646 <calloc>:
    1646:	0f 93       	push	r16
    1648:	1f 93       	push	r17
    164a:	cf 93       	push	r28
    164c:	df 93       	push	r29
    164e:	86 9f       	mul	r24, r22
    1650:	80 01       	movw	r16, r0
    1652:	87 9f       	mul	r24, r23
    1654:	10 0d       	add	r17, r0
    1656:	96 9f       	mul	r25, r22
    1658:	10 0d       	add	r17, r0
    165a:	11 24       	eor	r1, r1
    165c:	c8 01       	movw	r24, r16
    165e:	0d d0       	rcall	.+26     	; 0x167a <malloc>
    1660:	ec 01       	movw	r28, r24
    1662:	00 97       	sbiw	r24, 0x00	; 0
    1664:	21 f0       	breq	.+8      	; 0x166e <calloc+0x28>
    1666:	a8 01       	movw	r20, r16
    1668:	60 e0       	ldi	r22, 0x00	; 0
    166a:	70 e0       	ldi	r23, 0x00	; 0
    166c:	32 d1       	rcall	.+612    	; 0x18d2 <memset>
    166e:	ce 01       	movw	r24, r28
    1670:	df 91       	pop	r29
    1672:	cf 91       	pop	r28
    1674:	1f 91       	pop	r17
    1676:	0f 91       	pop	r16
    1678:	08 95       	ret

0000167a <malloc>:
    167a:	0f 93       	push	r16
    167c:	1f 93       	push	r17
    167e:	cf 93       	push	r28
    1680:	df 93       	push	r29
    1682:	82 30       	cpi	r24, 0x02	; 2
    1684:	91 05       	cpc	r25, r1
    1686:	10 f4       	brcc	.+4      	; 0x168c <malloc+0x12>
    1688:	82 e0       	ldi	r24, 0x02	; 2
    168a:	90 e0       	ldi	r25, 0x00	; 0
    168c:	e0 91 9e 02 	lds	r30, 0x029E	; 0x80029e <__flp>
    1690:	f0 91 9f 02 	lds	r31, 0x029F	; 0x80029f <__flp+0x1>
    1694:	20 e0       	ldi	r18, 0x00	; 0
    1696:	30 e0       	ldi	r19, 0x00	; 0
    1698:	a0 e0       	ldi	r26, 0x00	; 0
    169a:	b0 e0       	ldi	r27, 0x00	; 0
    169c:	30 97       	sbiw	r30, 0x00	; 0
    169e:	19 f1       	breq	.+70     	; 0x16e6 <malloc+0x6c>
    16a0:	40 81       	ld	r20, Z
    16a2:	51 81       	ldd	r21, Z+1	; 0x01
    16a4:	02 81       	ldd	r16, Z+2	; 0x02
    16a6:	13 81       	ldd	r17, Z+3	; 0x03
    16a8:	48 17       	cp	r20, r24
    16aa:	59 07       	cpc	r21, r25
    16ac:	c8 f0       	brcs	.+50     	; 0x16e0 <malloc+0x66>
    16ae:	84 17       	cp	r24, r20
    16b0:	95 07       	cpc	r25, r21
    16b2:	69 f4       	brne	.+26     	; 0x16ce <malloc+0x54>
    16b4:	10 97       	sbiw	r26, 0x00	; 0
    16b6:	31 f0       	breq	.+12     	; 0x16c4 <malloc+0x4a>
    16b8:	12 96       	adiw	r26, 0x02	; 2
    16ba:	0c 93       	st	X, r16
    16bc:	12 97       	sbiw	r26, 0x02	; 2
    16be:	13 96       	adiw	r26, 0x03	; 3
    16c0:	1c 93       	st	X, r17
    16c2:	27 c0       	rjmp	.+78     	; 0x1712 <malloc+0x98>
    16c4:	00 93 9e 02 	sts	0x029E, r16	; 0x80029e <__flp>
    16c8:	10 93 9f 02 	sts	0x029F, r17	; 0x80029f <__flp+0x1>
    16cc:	22 c0       	rjmp	.+68     	; 0x1712 <malloc+0x98>
    16ce:	21 15       	cp	r18, r1
    16d0:	31 05       	cpc	r19, r1
    16d2:	19 f0       	breq	.+6      	; 0x16da <malloc+0x60>
    16d4:	42 17       	cp	r20, r18
    16d6:	53 07       	cpc	r21, r19
    16d8:	18 f4       	brcc	.+6      	; 0x16e0 <malloc+0x66>
    16da:	9a 01       	movw	r18, r20
    16dc:	bd 01       	movw	r22, r26
    16de:	ef 01       	movw	r28, r30
    16e0:	df 01       	movw	r26, r30
    16e2:	f8 01       	movw	r30, r16
    16e4:	db cf       	rjmp	.-74     	; 0x169c <malloc+0x22>
    16e6:	21 15       	cp	r18, r1
    16e8:	31 05       	cpc	r19, r1
    16ea:	f9 f0       	breq	.+62     	; 0x172a <malloc+0xb0>
    16ec:	28 1b       	sub	r18, r24
    16ee:	39 0b       	sbc	r19, r25
    16f0:	24 30       	cpi	r18, 0x04	; 4
    16f2:	31 05       	cpc	r19, r1
    16f4:	80 f4       	brcc	.+32     	; 0x1716 <malloc+0x9c>
    16f6:	8a 81       	ldd	r24, Y+2	; 0x02
    16f8:	9b 81       	ldd	r25, Y+3	; 0x03
    16fa:	61 15       	cp	r22, r1
    16fc:	71 05       	cpc	r23, r1
    16fe:	21 f0       	breq	.+8      	; 0x1708 <malloc+0x8e>
    1700:	fb 01       	movw	r30, r22
    1702:	93 83       	std	Z+3, r25	; 0x03
    1704:	82 83       	std	Z+2, r24	; 0x02
    1706:	04 c0       	rjmp	.+8      	; 0x1710 <malloc+0x96>
    1708:	90 93 9f 02 	sts	0x029F, r25	; 0x80029f <__flp+0x1>
    170c:	80 93 9e 02 	sts	0x029E, r24	; 0x80029e <__flp>
    1710:	fe 01       	movw	r30, r28
    1712:	32 96       	adiw	r30, 0x02	; 2
    1714:	44 c0       	rjmp	.+136    	; 0x179e <malloc+0x124>
    1716:	fe 01       	movw	r30, r28
    1718:	e2 0f       	add	r30, r18
    171a:	f3 1f       	adc	r31, r19
    171c:	81 93       	st	Z+, r24
    171e:	91 93       	st	Z+, r25
    1720:	22 50       	subi	r18, 0x02	; 2
    1722:	31 09       	sbc	r19, r1
    1724:	39 83       	std	Y+1, r19	; 0x01
    1726:	28 83       	st	Y, r18
    1728:	3a c0       	rjmp	.+116    	; 0x179e <malloc+0x124>
    172a:	20 91 9c 02 	lds	r18, 0x029C	; 0x80029c <__brkval>
    172e:	30 91 9d 02 	lds	r19, 0x029D	; 0x80029d <__brkval+0x1>
    1732:	23 2b       	or	r18, r19
    1734:	41 f4       	brne	.+16     	; 0x1746 <malloc+0xcc>
    1736:	20 91 02 01 	lds	r18, 0x0102	; 0x800102 <__malloc_heap_start>
    173a:	30 91 03 01 	lds	r19, 0x0103	; 0x800103 <__malloc_heap_start+0x1>
    173e:	30 93 9d 02 	sts	0x029D, r19	; 0x80029d <__brkval+0x1>
    1742:	20 93 9c 02 	sts	0x029C, r18	; 0x80029c <__brkval>
    1746:	20 91 00 01 	lds	r18, 0x0100	; 0x800100 <__data_start>
    174a:	30 91 01 01 	lds	r19, 0x0101	; 0x800101 <__data_start+0x1>
    174e:	21 15       	cp	r18, r1
    1750:	31 05       	cpc	r19, r1
    1752:	41 f4       	brne	.+16     	; 0x1764 <malloc+0xea>
    1754:	2d b7       	in	r18, 0x3d	; 61
    1756:	3e b7       	in	r19, 0x3e	; 62
    1758:	40 91 04 01 	lds	r20, 0x0104	; 0x800104 <__malloc_margin>
    175c:	50 91 05 01 	lds	r21, 0x0105	; 0x800105 <__malloc_margin+0x1>
    1760:	24 1b       	sub	r18, r20
    1762:	35 0b       	sbc	r19, r21
    1764:	e0 91 9c 02 	lds	r30, 0x029C	; 0x80029c <__brkval>
    1768:	f0 91 9d 02 	lds	r31, 0x029D	; 0x80029d <__brkval+0x1>
    176c:	e2 17       	cp	r30, r18
    176e:	f3 07       	cpc	r31, r19
    1770:	a0 f4       	brcc	.+40     	; 0x179a <malloc+0x120>
    1772:	2e 1b       	sub	r18, r30
    1774:	3f 0b       	sbc	r19, r31
    1776:	28 17       	cp	r18, r24
    1778:	39 07       	cpc	r19, r25
    177a:	78 f0       	brcs	.+30     	; 0x179a <malloc+0x120>
    177c:	ac 01       	movw	r20, r24
    177e:	4e 5f       	subi	r20, 0xFE	; 254
    1780:	5f 4f       	sbci	r21, 0xFF	; 255
    1782:	24 17       	cp	r18, r20
    1784:	35 07       	cpc	r19, r21
    1786:	48 f0       	brcs	.+18     	; 0x179a <malloc+0x120>
    1788:	4e 0f       	add	r20, r30
    178a:	5f 1f       	adc	r21, r31
    178c:	50 93 9d 02 	sts	0x029D, r21	; 0x80029d <__brkval+0x1>
    1790:	40 93 9c 02 	sts	0x029C, r20	; 0x80029c <__brkval>
    1794:	81 93       	st	Z+, r24
    1796:	91 93       	st	Z+, r25
    1798:	02 c0       	rjmp	.+4      	; 0x179e <malloc+0x124>
    179a:	e0 e0       	ldi	r30, 0x00	; 0
    179c:	f0 e0       	ldi	r31, 0x00	; 0
    179e:	cf 01       	movw	r24, r30
    17a0:	df 91       	pop	r29
    17a2:	cf 91       	pop	r28
    17a4:	1f 91       	pop	r17
    17a6:	0f 91       	pop	r16
    17a8:	08 95       	ret

000017aa <free>:
    17aa:	cf 93       	push	r28
    17ac:	df 93       	push	r29
    17ae:	00 97       	sbiw	r24, 0x00	; 0
    17b0:	09 f4       	brne	.+2      	; 0x17b4 <free+0xa>
    17b2:	81 c0       	rjmp	.+258    	; 0x18b6 <free+0x10c>
    17b4:	fc 01       	movw	r30, r24
    17b6:	32 97       	sbiw	r30, 0x02	; 2
    17b8:	13 82       	std	Z+3, r1	; 0x03
    17ba:	12 82       	std	Z+2, r1	; 0x02
    17bc:	a0 91 9e 02 	lds	r26, 0x029E	; 0x80029e <__flp>
    17c0:	b0 91 9f 02 	lds	r27, 0x029F	; 0x80029f <__flp+0x1>
    17c4:	10 97       	sbiw	r26, 0x00	; 0
    17c6:	81 f4       	brne	.+32     	; 0x17e8 <free+0x3e>
    17c8:	20 81       	ld	r18, Z
    17ca:	31 81       	ldd	r19, Z+1	; 0x01
    17cc:	82 0f       	add	r24, r18
    17ce:	93 1f       	adc	r25, r19
    17d0:	20 91 9c 02 	lds	r18, 0x029C	; 0x80029c <__brkval>
    17d4:	30 91 9d 02 	lds	r19, 0x029D	; 0x80029d <__brkval+0x1>
    17d8:	28 17       	cp	r18, r24
    17da:	39 07       	cpc	r19, r25
    17dc:	51 f5       	brne	.+84     	; 0x1832 <free+0x88>
    17de:	f0 93 9d 02 	sts	0x029D, r31	; 0x80029d <__brkval+0x1>
    17e2:	e0 93 9c 02 	sts	0x029C, r30	; 0x80029c <__brkval>
    17e6:	67 c0       	rjmp	.+206    	; 0x18b6 <free+0x10c>
    17e8:	ed 01       	movw	r28, r26
    17ea:	20 e0       	ldi	r18, 0x00	; 0
    17ec:	30 e0       	ldi	r19, 0x00	; 0
    17ee:	ce 17       	cp	r28, r30
    17f0:	df 07       	cpc	r29, r31
    17f2:	40 f4       	brcc	.+16     	; 0x1804 <free+0x5a>
    17f4:	4a 81       	ldd	r20, Y+2	; 0x02
    17f6:	5b 81       	ldd	r21, Y+3	; 0x03
    17f8:	9e 01       	movw	r18, r28
    17fa:	41 15       	cp	r20, r1
    17fc:	51 05       	cpc	r21, r1
    17fe:	f1 f0       	breq	.+60     	; 0x183c <free+0x92>
    1800:	ea 01       	movw	r28, r20
    1802:	f5 cf       	rjmp	.-22     	; 0x17ee <free+0x44>
    1804:	d3 83       	std	Z+3, r29	; 0x03
    1806:	c2 83       	std	Z+2, r28	; 0x02
    1808:	40 81       	ld	r20, Z
    180a:	51 81       	ldd	r21, Z+1	; 0x01
    180c:	84 0f       	add	r24, r20
    180e:	95 1f       	adc	r25, r21
    1810:	c8 17       	cp	r28, r24
    1812:	d9 07       	cpc	r29, r25
    1814:	59 f4       	brne	.+22     	; 0x182c <free+0x82>
    1816:	88 81       	ld	r24, Y
    1818:	99 81       	ldd	r25, Y+1	; 0x01
    181a:	84 0f       	add	r24, r20
    181c:	95 1f       	adc	r25, r21
    181e:	02 96       	adiw	r24, 0x02	; 2
    1820:	91 83       	std	Z+1, r25	; 0x01
    1822:	80 83       	st	Z, r24
    1824:	8a 81       	ldd	r24, Y+2	; 0x02
    1826:	9b 81       	ldd	r25, Y+3	; 0x03
    1828:	93 83       	std	Z+3, r25	; 0x03
    182a:	82 83       	std	Z+2, r24	; 0x02
    182c:	21 15       	cp	r18, r1
    182e:	31 05       	cpc	r19, r1
    1830:	29 f4       	brne	.+10     	; 0x183c <free+0x92>
    1832:	f0 93 9f 02 	sts	0x029F, r31	; 0x80029f <__flp+0x1>
    1836:	e0 93 9e 02 	sts	0x029E, r30	; 0x80029e <__flp>
    183a:	3d c0       	rjmp	.+122    	; 0x18b6 <free+0x10c>
    183c:	e9 01       	movw	r28, r18
    183e:	fb 83       	std	Y+3, r31	; 0x03
    1840:	ea 83       	std	Y+2, r30	; 0x02
    1842:	49 91       	ld	r20, Y+
    1844:	59 91       	ld	r21, Y+
    1846:	c4 0f       	add	r28, r20
    1848:	d5 1f       	adc	r29, r21
    184a:	ec 17       	cp	r30, r28
    184c:	fd 07       	cpc	r31, r29
    184e:	61 f4       	brne	.+24     	; 0x1868 <free+0xbe>
    1850:	80 81       	ld	r24, Z
    1852:	91 81       	ldd	r25, Z+1	; 0x01
    1854:	84 0f       	add	r24, r20
    1856:	95 1f       	adc	r25, r21
    1858:	02 96       	adiw	r24, 0x02	; 2
    185a:	e9 01       	movw	r28, r18
    185c:	99 83       	std	Y+1, r25	; 0x01
    185e:	88 83       	st	Y, r24
    1860:	82 81       	ldd	r24, Z+2	; 0x02
    1862:	93 81       	ldd	r25, Z+3	; 0x03
    1864:	9b 83       	std	Y+3, r25	; 0x03
    1866:	8a 83       	std	Y+2, r24	; 0x02
    1868:	e0 e0       	ldi	r30, 0x00	; 0
    186a:	f0 e0       	ldi	r31, 0x00	; 0
    186c:	12 96       	adiw	r26, 0x02	; 2
    186e:	8d 91       	ld	r24, X+
    1870:	9c 91       	ld	r25, X
    1872:	13 97       	sbiw	r26, 0x03	; 3
    1874:	00 97       	sbiw	r24, 0x00	; 0
    1876:	19 f0       	breq	.+6      	; 0x187e <free+0xd4>
    1878:	fd 01       	movw	r30, r26
    187a:	dc 01       	movw	r26, r24
    187c:	f7 cf       	rjmp	.-18     	; 0x186c <free+0xc2>
    187e:	8d 91       	ld	r24, X+
    1880:	9c 91       	ld	r25, X
    1882:	11 97       	sbiw	r26, 0x01	; 1
    1884:	9d 01       	movw	r18, r26
    1886:	2e 5f       	subi	r18, 0xFE	; 254
    1888:	3f 4f       	sbci	r19, 0xFF	; 255
    188a:	82 0f       	add	r24, r18
    188c:	93 1f       	adc	r25, r19
    188e:	20 91 9c 02 	lds	r18, 0x029C	; 0x80029c <__brkval>
    1892:	30 91 9d 02 	lds	r19, 0x029D	; 0x80029d <__brkval+0x1>
    1896:	28 17       	cp	r18, r24
    1898:	39 07       	cpc	r19, r25
    189a:	69 f4       	brne	.+26     	; 0x18b6 <free+0x10c>
    189c:	30 97       	sbiw	r30, 0x00	; 0
    189e:	29 f4       	brne	.+10     	; 0x18aa <free+0x100>
    18a0:	10 92 9f 02 	sts	0x029F, r1	; 0x80029f <__flp+0x1>
    18a4:	10 92 9e 02 	sts	0x029E, r1	; 0x80029e <__flp>
    18a8:	02 c0       	rjmp	.+4      	; 0x18ae <free+0x104>
    18aa:	13 82       	std	Z+3, r1	; 0x03
    18ac:	12 82       	std	Z+2, r1	; 0x02
    18ae:	b0 93 9d 02 	sts	0x029D, r27	; 0x80029d <__brkval+0x1>
    18b2:	a0 93 9c 02 	sts	0x029C, r26	; 0x80029c <__brkval>
    18b6:	df 91       	pop	r29
    18b8:	cf 91       	pop	r28
    18ba:	08 95       	ret

000018bc <strnlen_P>:
    18bc:	fc 01       	movw	r30, r24
    18be:	05 90       	lpm	r0, Z+
    18c0:	61 50       	subi	r22, 0x01	; 1
    18c2:	70 40       	sbci	r23, 0x00	; 0
    18c4:	01 10       	cpse	r0, r1
    18c6:	d8 f7       	brcc	.-10     	; 0x18be <strnlen_P+0x2>
    18c8:	80 95       	com	r24
    18ca:	90 95       	com	r25
    18cc:	8e 0f       	add	r24, r30
    18ce:	9f 1f       	adc	r25, r31
    18d0:	08 95       	ret

000018d2 <memset>:
    18d2:	dc 01       	movw	r26, r24
    18d4:	01 c0       	rjmp	.+2      	; 0x18d8 <memset+0x6>
    18d6:	6d 93       	st	X+, r22
    18d8:	41 50       	subi	r20, 0x01	; 1
    18da:	50 40       	sbci	r21, 0x00	; 0
    18dc:	e0 f7       	brcc	.-8      	; 0x18d6 <memset+0x4>
    18de:	08 95       	ret

000018e0 <strnlen>:
    18e0:	fc 01       	movw	r30, r24
    18e2:	61 50       	subi	r22, 0x01	; 1
    18e4:	70 40       	sbci	r23, 0x00	; 0
    18e6:	01 90       	ld	r0, Z+
    18e8:	01 10       	cpse	r0, r1
    18ea:	d8 f7       	brcc	.-10     	; 0x18e2 <strnlen+0x2>
    18ec:	80 95       	com	r24
    18ee:	90 95       	com	r25
    18f0:	8e 0f       	add	r24, r30
    18f2:	9f 1f       	adc	r25, r31
    18f4:	08 95       	ret

000018f6 <fputc>:
    18f6:	0f 93       	push	r16
    18f8:	1f 93       	push	r17
    18fa:	cf 93       	push	r28
    18fc:	df 93       	push	r29
    18fe:	fb 01       	movw	r30, r22
    1900:	23 81       	ldd	r18, Z+3	; 0x03
    1902:	21 fd       	sbrc	r18, 1
    1904:	03 c0       	rjmp	.+6      	; 0x190c <fputc+0x16>
    1906:	8f ef       	ldi	r24, 0xFF	; 255
    1908:	9f ef       	ldi	r25, 0xFF	; 255
    190a:	2c c0       	rjmp	.+88     	; 0x1964 <fputc+0x6e>
    190c:	22 ff       	sbrs	r18, 2
    190e:	16 c0       	rjmp	.+44     	; 0x193c <fputc+0x46>
    1910:	46 81       	ldd	r20, Z+6	; 0x06
    1912:	57 81       	ldd	r21, Z+7	; 0x07
    1914:	24 81       	ldd	r18, Z+4	; 0x04
    1916:	35 81       	ldd	r19, Z+5	; 0x05
    1918:	42 17       	cp	r20, r18
    191a:	53 07       	cpc	r21, r19
    191c:	44 f4       	brge	.+16     	; 0x192e <fputc+0x38>
    191e:	a0 81       	ld	r26, Z
    1920:	b1 81       	ldd	r27, Z+1	; 0x01
    1922:	9d 01       	movw	r18, r26
    1924:	2f 5f       	subi	r18, 0xFF	; 255
    1926:	3f 4f       	sbci	r19, 0xFF	; 255
    1928:	31 83       	std	Z+1, r19	; 0x01
    192a:	20 83       	st	Z, r18
    192c:	8c 93       	st	X, r24
    192e:	26 81       	ldd	r18, Z+6	; 0x06
    1930:	37 81       	ldd	r19, Z+7	; 0x07
    1932:	2f 5f       	subi	r18, 0xFF	; 255
    1934:	3f 4f       	sbci	r19, 0xFF	; 255
    1936:	37 83       	std	Z+7, r19	; 0x07
    1938:	26 83       	std	Z+6, r18	; 0x06
    193a:	14 c0       	rjmp	.+40     	; 0x1964 <fputc+0x6e>
    193c:	8b 01       	movw	r16, r22
    193e:	ec 01       	movw	r28, r24
    1940:	fb 01       	movw	r30, r22
    1942:	00 84       	ldd	r0, Z+8	; 0x08
    1944:	f1 85       	ldd	r31, Z+9	; 0x09
    1946:	e0 2d       	mov	r30, r0
    1948:	09 95       	icall
    194a:	89 2b       	or	r24, r25
    194c:	e1 f6       	brne	.-72     	; 0x1906 <fputc+0x10>
    194e:	d8 01       	movw	r26, r16
    1950:	16 96       	adiw	r26, 0x06	; 6
    1952:	8d 91       	ld	r24, X+
    1954:	9c 91       	ld	r25, X
    1956:	17 97       	sbiw	r26, 0x07	; 7
    1958:	01 96       	adiw	r24, 0x01	; 1
    195a:	17 96       	adiw	r26, 0x07	; 7
    195c:	9c 93       	st	X, r25
    195e:	8e 93       	st	-X, r24
    1960:	16 97       	sbiw	r26, 0x06	; 6
    1962:	ce 01       	movw	r24, r28
    1964:	df 91       	pop	r29
    1966:	cf 91       	pop	r28
    1968:	1f 91       	pop	r17
    196a:	0f 91       	pop	r16
    196c:	08 95       	ret

0000196e <__ultoa_invert>:
    196e:	fa 01       	movw	r30, r20
    1970:	aa 27       	eor	r26, r26
    1972:	28 30       	cpi	r18, 0x08	; 8
    1974:	51 f1       	breq	.+84     	; 0x19ca <__ultoa_invert+0x5c>
    1976:	20 31       	cpi	r18, 0x10	; 16
    1978:	81 f1       	breq	.+96     	; 0x19da <__ultoa_invert+0x6c>
    197a:	e8 94       	clt
    197c:	6f 93       	push	r22
    197e:	6e 7f       	andi	r22, 0xFE	; 254
    1980:	6e 5f       	subi	r22, 0xFE	; 254
    1982:	7f 4f       	sbci	r23, 0xFF	; 255
    1984:	8f 4f       	sbci	r24, 0xFF	; 255
    1986:	9f 4f       	sbci	r25, 0xFF	; 255
    1988:	af 4f       	sbci	r26, 0xFF	; 255
    198a:	b1 e0       	ldi	r27, 0x01	; 1
    198c:	3e d0       	rcall	.+124    	; 0x1a0a <__ultoa_invert+0x9c>
    198e:	b4 e0       	ldi	r27, 0x04	; 4
    1990:	3c d0       	rcall	.+120    	; 0x1a0a <__ultoa_invert+0x9c>
    1992:	67 0f       	add	r22, r23
    1994:	78 1f       	adc	r23, r24
    1996:	89 1f       	adc	r24, r25
    1998:	9a 1f       	adc	r25, r26
    199a:	a1 1d       	adc	r26, r1
    199c:	68 0f       	add	r22, r24
    199e:	79 1f       	adc	r23, r25
    19a0:	8a 1f       	adc	r24, r26
    19a2:	91 1d       	adc	r25, r1
    19a4:	a1 1d       	adc	r26, r1
    19a6:	6a 0f       	add	r22, r26
    19a8:	71 1d       	adc	r23, r1
    19aa:	81 1d       	adc	r24, r1
    19ac:	91 1d       	adc	r25, r1
    19ae:	a1 1d       	adc	r26, r1
    19b0:	20 d0       	rcall	.+64     	; 0x19f2 <__ultoa_invert+0x84>
    19b2:	09 f4       	brne	.+2      	; 0x19b6 <__ultoa_invert+0x48>
    19b4:	68 94       	set
    19b6:	3f 91       	pop	r19
    19b8:	2a e0       	ldi	r18, 0x0A	; 10
    19ba:	26 9f       	mul	r18, r22
    19bc:	11 24       	eor	r1, r1
    19be:	30 19       	sub	r19, r0
    19c0:	30 5d       	subi	r19, 0xD0	; 208
    19c2:	31 93       	st	Z+, r19
    19c4:	de f6       	brtc	.-74     	; 0x197c <__ultoa_invert+0xe>
    19c6:	cf 01       	movw	r24, r30
    19c8:	08 95       	ret
    19ca:	46 2f       	mov	r20, r22
    19cc:	47 70       	andi	r20, 0x07	; 7
    19ce:	40 5d       	subi	r20, 0xD0	; 208
    19d0:	41 93       	st	Z+, r20
    19d2:	b3 e0       	ldi	r27, 0x03	; 3
    19d4:	0f d0       	rcall	.+30     	; 0x19f4 <__ultoa_invert+0x86>
    19d6:	c9 f7       	brne	.-14     	; 0x19ca <__ultoa_invert+0x5c>
    19d8:	f6 cf       	rjmp	.-20     	; 0x19c6 <__ultoa_invert+0x58>
    19da:	46 2f       	mov	r20, r22
    19dc:	4f 70       	andi	r20, 0x0F	; 15
    19de:	40 5d       	subi	r20, 0xD0	; 208
    19e0:	4a 33       	cpi	r20, 0x3A	; 58
    19e2:	18 f0       	brcs	.+6      	; 0x19ea <__ultoa_invert+0x7c>
    19e4:	49 5d       	subi	r20, 0xD9	; 217
    19e6:	31 fd       	sbrc	r19, 1
    19e8:	40 52       	subi	r20, 0x20	; 32
    19ea:	41 93       	st	Z+, r20
    19ec:	02 d0       	rcall	.+4      	; 0x19f2 <__ultoa_invert+0x84>
    19ee:	a9 f7       	brne	.-22     	; 0x19da <__ultoa_invert+0x6c>
    19f0:	ea cf       	rjmp	.-44     	; 0x19c6 <__ultoa_invert+0x58>
    19f2:	b4 e0       	ldi	r27, 0x04	; 4
    19f4:	a6 95       	lsr	r26
    19f6:	97 95       	ror	r25
    19f8:	87 95       	ror	r24
    19fa:	77 95       	ror	r23
    19fc:	67 95       	ror	r22
    19fe:	ba 95       	dec	r27
    1a00:	c9 f7       	brne	.-14     	; 0x19f4 <__ultoa_invert+0x86>
    1a02:	00 97       	sbiw	r24, 0x00	; 0
    1a04:	61 05       	cpc	r22, r1
    1a06:	71 05       	cpc	r23, r1
    1a08:	08 95       	ret
    1a0a:	9b 01       	movw	r18, r22
    1a0c:	ac 01       	movw	r20, r24
    1a0e:	0a 2e       	mov	r0, r26
    1a10:	06 94       	lsr	r0
    1a12:	57 95       	ror	r21
    1a14:	47 95       	ror	r20
    1a16:	37 95       	ror	r19
    1a18:	27 95       	ror	r18
    1a1a:	ba 95       	dec	r27
    1a1c:	c9 f7       	brne	.-14     	; 0x1a10 <__ultoa_invert+0xa2>
    1a1e:	62 0f       	add	r22, r18
    1a20:	73 1f       	adc	r23, r19
    1a22:	84 1f       	adc	r24, r20
    1a24:	95 1f       	adc	r25, r21
    1a26:	a0 1d       	adc	r26, r0
    1a28:	08 95       	ret

00001a2a <__prologue_saves__>:
    1a2a:	2f 92       	push	r2
    1a2c:	3f 92       	push	r3
    1a2e:	4f 92       	push	r4
    1a30:	5f 92       	push	r5
    1a32:	6f 92       	push	r6
    1a34:	7f 92       	push	r7
    1a36:	8f 92       	push	r8
    1a38:	9f 92       	push	r9
    1a3a:	af 92       	push	r10
    1a3c:	bf 92       	push	r11
    1a3e:	cf 92       	push	r12
    1a40:	df 92       	push	r13
    1a42:	ef 92       	push	r14
    1a44:	ff 92       	push	r15
    1a46:	0f 93       	push	r16
    1a48:	1f 93       	push	r17
    1a4a:	cf 93       	push	r28
    1a4c:	df 93       	push	r29
    1a4e:	cd b7       	in	r28, 0x3d	; 61
    1a50:	de b7       	in	r29, 0x3e	; 62
    1a52:	ca 1b       	sub	r28, r26
    1a54:	db 0b       	sbc	r29, r27
    1a56:	0f b6       	in	r0, 0x3f	; 63
    1a58:	f8 94       	cli
    1a5a:	de bf       	out	0x3e, r29	; 62
    1a5c:	0f be       	out	0x3f, r0	; 63
    1a5e:	cd bf       	out	0x3d, r28	; 61
    1a60:	09 94       	ijmp

00001a62 <__epilogue_restores__>:
    1a62:	2a 88       	ldd	r2, Y+18	; 0x12
    1a64:	39 88       	ldd	r3, Y+17	; 0x11
    1a66:	48 88       	ldd	r4, Y+16	; 0x10
    1a68:	5f 84       	ldd	r5, Y+15	; 0x0f
    1a6a:	6e 84       	ldd	r6, Y+14	; 0x0e
    1a6c:	7d 84       	ldd	r7, Y+13	; 0x0d
    1a6e:	8c 84       	ldd	r8, Y+12	; 0x0c
    1a70:	9b 84       	ldd	r9, Y+11	; 0x0b
    1a72:	aa 84       	ldd	r10, Y+10	; 0x0a
    1a74:	b9 84       	ldd	r11, Y+9	; 0x09
    1a76:	c8 84       	ldd	r12, Y+8	; 0x08
    1a78:	df 80       	ldd	r13, Y+7	; 0x07
    1a7a:	ee 80       	ldd	r14, Y+6	; 0x06
    1a7c:	fd 80       	ldd	r15, Y+5	; 0x05
    1a7e:	0c 81       	ldd	r16, Y+4	; 0x04
    1a80:	1b 81       	ldd	r17, Y+3	; 0x03
    1a82:	aa 81       	ldd	r26, Y+2	; 0x02
    1a84:	b9 81       	ldd	r27, Y+1	; 0x01
    1a86:	ce 0f       	add	r28, r30
    1a88:	d1 1d       	adc	r29, r1
    1a8a:	0f b6       	in	r0, 0x3f	; 63
    1a8c:	f8 94       	cli
    1a8e:	de bf       	out	0x3e, r29	; 62
    1a90:	0f be       	out	0x3f, r0	; 63
    1a92:	cd bf       	out	0x3d, r28	; 61
    1a94:	ed 01       	movw	r28, r26
    1a96:	08 95       	ret

00001a98 <_exit>:
    1a98:	f8 94       	cli

00001a9a <__stop_program>:
    1a9a:	ff cf       	rjmp	.-2      	; 0x1a9a <__stop_program>
