
MyProject1.elf:     file format elf32-avr

Sections:
Idx Name          Size      VMA       LMA       File off  Algn
  0 .data         0000011c  00800100  000008e0  00000974  2**0
                  CONTENTS, ALLOC, LOAD, DATA
  1 .text         000008e0  00000000  00000000  00000094  2**1
                  CONTENTS, ALLOC, LOAD, READONLY, CODE
  2 .bss          0000003e  0080021c  0080021c  00000a90  2**0
                  ALLOC
  3 .comment      00000030  00000000  00000000  00000a90  2**0
                  CONTENTS, READONLY
  4 .note.gnu.avr.deviceinfo 00000040  00000000  00000000  00000ac0  2**2
                  CONTENTS, READONLY
  5 .debug_aranges 00000118  00000000  00000000  00000b00  2**0
                  CONTENTS, READONLY, DEBUGGING
  6 .debug_info   00001a31  00000000  00000000  00000c18  2**0
                  CONTENTS, READONLY, DEBUGGING
  7 .debug_abbrev 0000115d  00000000  00000000  00002649  2**0
                  CONTENTS, READONLY, DEBUGGING
  8 .debug_line   00001657  00000000  00000000  000037a6  2**0
                  CONTENTS, READONLY, DEBUGGING
  9 .debug_frame  00000280  00000000  00000000  00004e00  2**2
                  CONTENTS, READONLY, DEBUGGING
 10 .debug_str    0000b428  00000000  00000000  00005080  2**0
                  CONTENTS, READONLY, DEBUGGING
 11 .debug_loc    000009c2  00000000  00000000  000104a8  2**0
                  CONTENTS, READONLY, DEBUGGING
 12 .debug_ranges 000000e0  00000000  00000000  00010e6a  2**0
                  CONTENTS, READONLY, DEBUGGING
 13 .debug_macro  000047a9  00000000  00000000  00010f4a  2**0
                  CONTENTS, READONLY, DEBUGGING

Disassembly of section .text:

00000000 <__vectors>:
   0:	3d c0       	rjmp	.+122    	; 0x7c <__ctors_end>
   2:	00 00       	nop
   4:	56 c0       	rjmp	.+172    	; 0xb2 <__bad_interrupt>
   6:	00 00       	nop
   8:	54 c0       	rjmp	.+168    	; 0xb2 <__bad_interrupt>
   a:	00 00       	nop
   c:	52 c0       	rjmp	.+164    	; 0xb2 <__bad_interrupt>
   e:	00 00       	nop
  10:	50 c0       	rjmp	.+160    	; 0xb2 <__bad_interrupt>
  12:	00 00       	nop
  14:	4e c0       	rjmp	.+156    	; 0xb2 <__bad_interrupt>
  16:	00 00       	nop
  18:	4c c0       	rjmp	.+152    	; 0xb2 <__bad_interrupt>
  1a:	00 00       	nop
  1c:	4a c0       	rjmp	.+148    	; 0xb2 <__bad_interrupt>
  1e:	00 00       	nop
  20:	48 c0       	rjmp	.+144    	; 0xb2 <__bad_interrupt>
  22:	00 00       	nop
  24:	46 c0       	rjmp	.+140    	; 0xb2 <__bad_interrupt>
  26:	00 00       	nop
  28:	44 c0       	rjmp	.+136    	; 0xb2 <__bad_interrupt>
  2a:	00 00       	nop
  2c:	42 c0       	rjmp	.+132    	; 0xb2 <__bad_interrupt>
  2e:	00 00       	nop
  30:	40 c0       	rjmp	.+128    	; 0xb2 <__bad_interrupt>
  32:	00 00       	nop
  34:	3e c0       	rjmp	.+124    	; 0xb2 <__bad_interrupt>
  36:	00 00       	nop
  38:	3c c0       	rjmp	.+120    	; 0xb2 <__bad_interrupt>
  3a:	00 00       	nop
  3c:	3a c0       	rjmp	.+116    	; 0xb2 <__bad_interrupt>
  3e:	00 00       	nop
  40:	38 c0       	rjmp	.+112    	; 0xb2 <__bad_interrupt>
  42:	00 00       	nop
  44:	36 c0       	rjmp	.+108    	; 0xb2 <__bad_interrupt>
  46:	00 00       	nop
  48:	34 c0       	rjmp	.+104    	; 0xb2 <__bad_interrupt>
  4a:	00 00       	nop
  4c:	32 c0       	rjmp	.+100    	; 0xb2 <__bad_interrupt>
  4e:	00 00       	nop
  50:	4e c1       	rjmp	.+668    	; 0x2ee <__vector_20>
  52:	00 00       	nop
  54:	2e c0       	rjmp	.+92     	; 0xb2 <__bad_interrupt>
  56:	00 00       	nop
  58:	2c c0       	rjmp	.+88     	; 0xb2 <__bad_interrupt>
  5a:	00 00       	nop
  5c:	2a c0       	rjmp	.+84     	; 0xb2 <__bad_interrupt>
  5e:	00 00       	nop
  60:	28 c0       	rjmp	.+80     	; 0xb2 <__bad_interrupt>
  62:	00 00       	nop
  64:	26 c0       	rjmp	.+76     	; 0xb2 <__bad_interrupt>
  66:	00 00       	nop
  68:	24 c0       	rjmp	.+72     	; 0xb2 <__bad_interrupt>
  6a:	00 00       	nop
  6c:	22 c0       	rjmp	.+68     	; 0xb2 <__bad_interrupt>
  6e:	00 00       	nop
  70:	20 c0       	rjmp	.+64     	; 0xb2 <__bad_interrupt>
  72:	00 00       	nop
  74:	1e c0       	rjmp	.+60     	; 0xb2 <__bad_interrupt>
  76:	00 00       	nop
  78:	1c c0       	rjmp	.+56     	; 0xb2 <__bad_interrupt>
	...

0000007c <__ctors_end>:
  7c:	11 24       	eor	r1, r1
  7e:	1f be       	out	0x3f, r1	; 63
  80:	cf ef       	ldi	r28, 0xFF	; 255
  82:	d4 e0       	ldi	r29, 0x04	; 4
  84:	de bf       	out	0x3e, r29	; 62
  86:	cd bf       	out	0x3d, r28	; 61

00000088 <__do_copy_data>:
  88:	12 e0       	ldi	r17, 0x02	; 2
  8a:	a0 e0       	ldi	r26, 0x00	; 0
  8c:	b1 e0       	ldi	r27, 0x01	; 1
  8e:	e0 ee       	ldi	r30, 0xE0	; 224
  90:	f8 e0       	ldi	r31, 0x08	; 8
  92:	02 c0       	rjmp	.+4      	; 0x98 <__do_copy_data+0x10>
  94:	05 90       	lpm	r0, Z+
  96:	0d 92       	st	X+, r0
  98:	ac 31       	cpi	r26, 0x1C	; 28
  9a:	b1 07       	cpc	r27, r17
  9c:	d9 f7       	brne	.-10     	; 0x94 <__do_copy_data+0xc>

0000009e <__do_clear_bss>:
  9e:	22 e0       	ldi	r18, 0x02	; 2
  a0:	ac e1       	ldi	r26, 0x1C	; 28
  a2:	b2 e0       	ldi	r27, 0x02	; 2
  a4:	01 c0       	rjmp	.+2      	; 0xa8 <.do_clear_bss_start>

000000a6 <.do_clear_bss_loop>:
  a6:	1d 92       	st	X+, r1

000000a8 <.do_clear_bss_start>:
  a8:	aa 35       	cpi	r26, 0x5A	; 90
  aa:	b2 07       	cpc	r27, r18
  ac:	e1 f7       	brne	.-8      	; 0xa6 <.do_clear_bss_loop>
  ae:	2c d0       	rcall	.+88     	; 0x108 <main>
  b0:	15 c4       	rjmp	.+2090   	; 0x8dc <_exit>

000000b2 <__bad_interrupt>:
  b2:	a6 cf       	rjmp	.-180    	; 0x0 <__vectors>

000000b4 <can_clear_all_mob>:
  b4:	80 e0       	ldi	r24, 0x00	; 0
  b6:	ad ee       	ldi	r26, 0xED	; 237
  b8:	b0 e0       	ldi	r27, 0x00	; 0
  ba:	98 2f       	mov	r25, r24
  bc:	92 95       	swap	r25
  be:	90 7f       	andi	r25, 0xF0	; 240
  c0:	9c 93       	st	X, r25
  c2:	ee ee       	ldi	r30, 0xEE	; 238
  c4:	f0 e0       	ldi	r31, 0x00	; 0
  c6:	11 92       	st	Z+, r1
  c8:	e8 3f       	cpi	r30, 0xF8	; 248
  ca:	f1 05       	cpc	r31, r1
  cc:	e1 f7       	brne	.-8      	; 0xc6 <can_clear_all_mob+0x12>
  ce:	8f 5f       	subi	r24, 0xFF	; 255
  d0:	86 30       	cpi	r24, 0x06	; 6
  d2:	99 f7       	brne	.-26     	; 0xba <can_clear_all_mob+0x6>
  d4:	08 95       	ret

000000d6 <can_fixed_baudrate>:
  d6:	81 e0       	ldi	r24, 0x01	; 1
  d8:	80 93 d8 00 	sts	0x00D8, r24	; 0x8000d8 <__TEXT_REGION_LENGTH__+0x7e00d8>
  dc:	8e e0       	ldi	r24, 0x0E	; 14
  de:	80 93 e2 00 	sts	0x00E2, r24	; 0x8000e2 <__TEXT_REGION_LENGTH__+0x7e00e2>
  e2:	8c e0       	ldi	r24, 0x0C	; 12
  e4:	80 93 e3 00 	sts	0x00E3, r24	; 0x8000e3 <__TEXT_REGION_LENGTH__+0x7e00e3>
  e8:	87 e3       	ldi	r24, 0x37	; 55
  ea:	80 93 e4 00 	sts	0x00E4, r24	; 0x8000e4 <__TEXT_REGION_LENGTH__+0x7e00e4>
  ee:	81 e0       	ldi	r24, 0x01	; 1
  f0:	08 95       	ret

000000f2 <can_init>:
  f2:	f1 df       	rcall	.-30     	; 0xd6 <can_fixed_baudrate>
  f4:	88 23       	and	r24, r24
  f6:	39 f0       	breq	.+14     	; 0x106 <can_init+0x14>
  f8:	dd df       	rcall	.-70     	; 0xb4 <can_clear_all_mob>
  fa:	e8 ed       	ldi	r30, 0xD8	; 216
  fc:	f0 e0       	ldi	r31, 0x00	; 0
  fe:	80 81       	ld	r24, Z
 100:	82 60       	ori	r24, 0x02	; 2
 102:	80 83       	st	Z, r24
 104:	81 e0       	ldi	r24, 0x01	; 1
 106:	08 95       	ret

00000108 <main>:
uint8_t can_buffer_rx[CAN_BUFFER_SIZE];



int main(void)
{
 108:	cf 93       	push	r28
 10a:	df 93       	push	r29
 10c:	cd b7       	in	r28, 0x3d	; 61
 10e:	de b7       	in	r29, 0x3e	; 62
 110:	c0 58       	subi	r28, 0x80	; 128
 112:	d1 09       	sbc	r29, r1
 114:	0f b6       	in	r0, 0x3f	; 63
 116:	f8 94       	cli
 118:	de bf       	out	0x3e, r29	; 62
 11a:	0f be       	out	0x3f, r0	; 63
 11c:	cd bf       	out	0x3d, r28	; 61
	uart_init(9600);
 11e:	80 e8       	ldi	r24, 0x80	; 128
 120:	95 e2       	ldi	r25, 0x25	; 37
 122:	2d d1       	rcall	.+602    	; 0x37e <uart_init>
	fdevopen(&uart_putc, NULL);
 124:	60 e0       	ldi	r22, 0x00	; 0
 126:	70 e0       	ldi	r23, 0x00	; 0
 128:	89 ee       	ldi	r24, 0xE9	; 233
 12a:	91 e0       	ldi	r25, 0x01	; 1
 12c:	b4 d1       	rcall	.+872    	; 0x496 <fdevopen>
	fdevopen((int (*)(char,  struct __file *))&uart_getc, NULL);
 12e:	60 e0       	ldi	r22, 0x00	; 0
 130:	70 e0       	ldi	r23, 0x00	; 0
 132:	82 e0       	ldi	r24, 0x02	; 2
 134:	92 e0       	ldi	r25, 0x02	; 2
	can_init(0);
 136:	af d1       	rcall	.+862    	; 0x496 <fdevopen>
 138:	80 e0       	ldi	r24, 0x00	; 0
 13a:	db df       	rcall	.-74     	; 0xf2 <can_init>
	CANGIE |= (1 << ENIT);
 13c:	eb ed       	ldi	r30, 0xDB	; 219
 13e:	f0 e0       	ldi	r31, 0x00	; 0
 140:	80 81       	ld	r24, Z
 142:	80 68       	ori	r24, 0x80	; 128
 144:	80 83       	st	Z, r24
	sei();
 146:	78 94       	sei
	
	can_buffer_rx[0] = 0x00; //Byte 0
 148:	ec e3       	ldi	r30, 0x3C	; 60
 14a:	f2 e0       	ldi	r31, 0x02	; 2
 14c:	10 82       	st	Z, r1
	can_buffer_rx[1] = 0x00; //Software throttle
 14e:	11 82       	std	Z+1, r1	; 0x01
	can_buffer_rx[2] = 0x00;
 150:	12 82       	std	Z+2, r1	; 0x02
	can_buffer_rx[3] = 0x00;
 152:	13 82       	std	Z+3, r1	; 0x03
	can_buffer_rx[4] = 0x00;
 154:	14 82       	std	Z+4, r1	; 0x04
	can_buffer_rx[5] = 0x00;
 156:	15 82       	std	Z+5, r1	; 0x05
	can_buffer_rx[6] = 0x00;
 158:	16 82       	std	Z+6, r1	; 0x06
	can_buffer_rx[7] = 0x00;
 15a:	17 82       	std	Z+7, r1	; 0x07
	
	//Can_config_rx();
	//Can_config_rx_buffer();
	//can_get_data(0x200);
	
	rx_conf.pt_data = &can_buffer_rx[0];
 15c:	ac e1       	ldi	r26, 0x1C	; 28
 15e:	b2 e0       	ldi	r27, 0x02	; 2
 160:	18 96       	adiw	r26, 0x08	; 8
 162:	fc 93       	st	X, r31
 164:	ee 93       	st	-X, r30
 166:	17 97       	sbiw	r26, 0x07	; 7
	rx_conf.ctrl.ide = 0;
 168:	1b 96       	adiw	r26, 0x0b	; 11
 16a:	1c 92       	st	X, r1
 16c:	1b 97       	sbiw	r26, 0x0b	; 11
	rx_conf.dlc = 8;//
 16e:	98 e0       	ldi	r25, 0x08	; 8
 170:	16 96       	adiw	r26, 0x06	; 6
 172:	9c 93       	st	X, r25
 174:	16 97       	sbiw	r26, 0x06	; 6
	//rx_conf.ctrl.rtr = 0;
	rx_conf.id.std = CAN_ID+1;//
 176:	21 e8       	ldi	r18, 0x81	; 129
 178:	30 e0       	ldi	r19, 0x00	; 0
 17a:	13 96       	adiw	r26, 0x03	; 3
 17c:	3c 93       	st	X, r19
 17e:	2e 93       	st	-X, r18
 180:	12 97       	sbiw	r26, 0x02	; 2
	//rx_conf.cmd = CMD_RX_DATA;
	rx_conf.cmd = CMD_RX_MASKED;
 182:	87 e0       	ldi	r24, 0x07	; 7
 184:	11 96       	adiw	r26, 0x01	; 1
 186:	8c 93       	st	X, r24

	//Setup receive message
	rx_rtr.pt_data = &can_buffer_rx[7];
 188:	e4 e4       	ldi	r30, 0x44	; 68
 18a:	f2 e0       	ldi	r31, 0x02	; 2
 18c:	43 e4       	ldi	r20, 0x43	; 67
 18e:	52 e0       	ldi	r21, 0x02	; 2
 190:	50 87       	std	Z+8, r21	; 0x08
 192:	47 83       	std	Z+7, r20	; 0x07
	rx_rtr.ctrl.ide = 0;
 194:	13 86       	std	Z+11, r1	; 0x0b
	rx_rtr.ctrl.rtr = 1;
 196:	41 e0       	ldi	r20, 0x01	; 1
 198:	42 87       	std	Z+10, r20	; 0x0a
	rx_rtr.dlc = 8;
 19a:	96 83       	std	Z+6, r25	; 0x06
	rx_rtr.id.std = CAN_ID+1;
 19c:	33 83       	std	Z+3, r19	; 0x03
 19e:	22 83       	std	Z+2, r18	; 0x02
	rx_rtr.cmd = CMD_RX_REMOTE_MASKED;
 1a0:	99 e0       	ldi	r25, 0x09	; 9
 1a2:	91 83       	std	Z+1, r25	; 0x01
	//	_delay_ms(500);
	//}
	
	while (1)
	{
		can_buffer_tx[0] = 0xFF; //Byte 0
 1a4:	e4 e3       	ldi	r30, 0x34	; 52
 1a6:	f2 e0       	ldi	r31, 0x02	; 2
 1a8:	9f ef       	ldi	r25, 0xFF	; 255
 1aa:	90 83       	st	Z, r25
		can_buffer_tx[1] = 0x55; //Physical throttle
 1ac:	95 e5       	ldi	r25, 0x55	; 85
 1ae:	91 83       	std	Z+1, r25	; 0x01
		can_buffer_tx[2] = 0x33; //Software throttle
 1b0:	93 e3       	ldi	r25, 0x33	; 51
 1b2:	92 83       	std	Z+2, r25	; 0x02
		can_buffer_tx[3] = 0x0F; //Current
 1b4:	9f e0       	ldi	r25, 0x0F	; 15
 1b6:	93 83       	std	Z+3, r25	; 0x03
		can_buffer_tx[4] = 0xF0; //Current
 1b8:	90 ef       	ldi	r25, 0xF0	; 240
 1ba:	94 83       	std	Z+4, r25	; 0x04
		can_buffer_tx[5] = 0x77; //Voltage
 1bc:	97 e7       	ldi	r25, 0x77	; 119
 1be:	95 83       	std	Z+5, r25	; 0x05
		can_buffer_tx[6] = 0xaa; //Voltage
 1c0:	9a ea       	ldi	r25, 0xAA	; 170
 1c2:	96 83       	std	Z+6, r25	; 0x06
		can_buffer_tx[7] = 0x9c; //Reserved
 1c4:	9c e9       	ldi	r25, 0x9C	; 156
 1c6:	97 83       	std	Z+7, r25	; 0x07
		
		tx_msg.pt_data = &can_buffer_tx[0];
 1c8:	a8 e2       	ldi	r26, 0x28	; 40
 1ca:	b2 e0       	ldi	r27, 0x02	; 2
 1cc:	18 96       	adiw	r26, 0x08	; 8
 1ce:	fc 93       	st	X, r31
 1d0:	ee 93       	st	-X, r30
 1d2:	17 97       	sbiw	r26, 0x07	; 7
		tx_msg.ctrl.ide = 0;
 1d4:	1b 96       	adiw	r26, 0x0b	; 11
 1d6:	1c 92       	st	X, r1
 1d8:	1b 97       	sbiw	r26, 0x0b	; 11
		tx_msg.dlc = 7;
 1da:	16 96       	adiw	r26, 0x06	; 6
 1dc:	8c 93       	st	X, r24
 1de:	16 97       	sbiw	r26, 0x06	; 6
		tx_msg.id.std = 0x011;
 1e0:	81 e1       	ldi	r24, 0x11	; 17
 1e2:	90 e0       	ldi	r25, 0x00	; 0
 1e4:	13 96       	adiw	r26, 0x03	; 3
 1e6:	9c 93       	st	X, r25
 1e8:	8e 93       	st	-X, r24
 1ea:	12 97       	sbiw	r26, 0x02	; 2
		tx_msg.cmd = CMD_TX_DATA;
 1ec:	82 e0       	ldi	r24, 0x02	; 2
 1ee:	11 96       	adiw	r26, 0x01	; 1
		fgets(temp_buff, 8, stdin);
		can_msg = uart_getc(temp_buff);
		sprintf(temp_buff, "%x", can_msg);*/
		
		for(;;) {
			puts("Type Something:");
 1f0:	8c 93       	st	X, r24
 1f2:	8c e0       	ldi	r24, 0x0C	; 12
			gets(&buffer[0]);
 1f4:	92 e0       	ldi	r25, 0x02	; 2
 1f6:	c2 d1       	rcall	.+900    	; 0x57c <puts>
 1f8:	ce 01       	movw	r24, r28
			puts(&buffer[0]);
 1fa:	01 96       	adiw	r24, 0x01	; 1
 1fc:	96 d1       	rcall	.+812    	; 0x52a <gets>
 1fe:	ce 01       	movw	r24, r28
 200:	01 96       	adiw	r24, 0x01	; 1
	#else
		//round up by default
		__ticks_dc = (uint32_t)(ceil(fabs(__tmp)));
	#endif

	__builtin_avr_delay_cycles(__ticks_dc);
 202:	bc d1       	rcall	.+888    	; 0x57c <puts>
 204:	2f ef       	ldi	r18, 0xFF	; 255
 206:	89 e6       	ldi	r24, 0x69	; 105
 208:	98 e1       	ldi	r25, 0x18	; 24
 20a:	21 50       	subi	r18, 0x01	; 1
 20c:	80 40       	sbci	r24, 0x00	; 0
 20e:	90 40       	sbci	r25, 0x00	; 0
 210:	e1 f7       	brne	.-8      	; 0x20a <main+0x102>
 212:	00 c0       	rjmp	.+0      	; 0x214 <main+0x10c>
 214:	00 00       	nop
 216:	2f ef       	ldi	r18, 0xFF	; 255
 218:	89 e6       	ldi	r24, 0x69	; 105
 21a:	98 e1       	ldi	r25, 0x18	; 24
 21c:	21 50       	subi	r18, 0x01	; 1
 21e:	80 40       	sbci	r24, 0x00	; 0
 220:	90 40       	sbci	r25, 0x00	; 0
 222:	e1 f7       	brne	.-8      	; 0x21c <main+0x114>
 224:	00 c0       	rjmp	.+0      	; 0x226 <main+0x11e>
 226:	00 00       	nop
 228:	e4 cf       	rjmp	.-56     	; 0x1f2 <main+0xea>

0000022a <buffer_write>:
 22a:	fc 01       	movw	r30, r24
 22c:	ee 57       	subi	r30, 0x7E	; 126
 22e:	ff 4f       	sbci	r31, 0xFF	; 255
 230:	20 81       	ld	r18, Z
 232:	22 23       	and	r18, r18
 234:	11 f0       	breq	.+4      	; 0x23a <buffer_write+0x10>
 236:	10 82       	st	Z, r1
 238:	16 c0       	rjmp	.+44     	; 0x266 <buffer_write+0x3c>
 23a:	fc 01       	movw	r30, r24
 23c:	e0 58       	subi	r30, 0x80	; 128
 23e:	ff 4f       	sbci	r31, 0xFF	; 255
 240:	20 81       	ld	r18, Z
 242:	31 96       	adiw	r30, 0x01	; 1
 244:	30 81       	ld	r19, Z
 246:	23 13       	cpse	r18, r19
 248:	0e c0       	rjmp	.+28     	; 0x266 <buffer_write+0x3c>
 24a:	30 e0       	ldi	r19, 0x00	; 0
 24c:	2f 5f       	subi	r18, 0xFF	; 255
 24e:	3f 4f       	sbci	r19, 0xFF	; 255
 250:	2f 77       	andi	r18, 0x7F	; 127
 252:	30 78       	andi	r19, 0x80	; 128
 254:	33 23       	and	r19, r19
 256:	34 f4       	brge	.+12     	; 0x264 <buffer_write+0x3a>
 258:	21 50       	subi	r18, 0x01	; 1
 25a:	31 09       	sbc	r19, r1
 25c:	20 68       	ori	r18, 0x80	; 128
 25e:	3f 6f       	ori	r19, 0xFF	; 255
 260:	2f 5f       	subi	r18, 0xFF	; 255
 262:	3f 4f       	sbci	r19, 0xFF	; 255
 264:	20 83       	st	Z, r18
 266:	fc 01       	movw	r30, r24
 268:	e0 58       	subi	r30, 0x80	; 128
 26a:	ff 4f       	sbci	r31, 0xFF	; 255
 26c:	20 81       	ld	r18, Z
 26e:	30 e0       	ldi	r19, 0x00	; 0
 270:	dc 01       	movw	r26, r24
 272:	a2 0f       	add	r26, r18
 274:	b3 1f       	adc	r27, r19
 276:	6c 93       	st	X, r22
 278:	c9 01       	movw	r24, r18
 27a:	01 96       	adiw	r24, 0x01	; 1
 27c:	8f 77       	andi	r24, 0x7F	; 127
 27e:	90 78       	andi	r25, 0x80	; 128
 280:	99 23       	and	r25, r25
 282:	24 f4       	brge	.+8      	; 0x28c <buffer_write+0x62>
 284:	01 97       	sbiw	r24, 0x01	; 1
 286:	80 68       	ori	r24, 0x80	; 128
 288:	9f 6f       	ori	r25, 0xFF	; 255
 28a:	01 96       	adiw	r24, 0x01	; 1
 28c:	80 83       	st	Z, r24
 28e:	08 95       	ret

00000290 <buffer_read>:
 290:	fc 01       	movw	r30, r24
 292:	ee 57       	subi	r30, 0x7E	; 126
 294:	ff 4f       	sbci	r31, 0xFF	; 255
 296:	20 81       	ld	r18, Z
 298:	21 11       	cpse	r18, r1
 29a:	22 c0       	rjmp	.+68     	; 0x2e0 <buffer_read+0x50>
 29c:	31 97       	sbiw	r30, 0x01	; 1
 29e:	20 81       	ld	r18, Z
 2a0:	30 e0       	ldi	r19, 0x00	; 0
 2a2:	fc 01       	movw	r30, r24
 2a4:	e2 0f       	add	r30, r18
 2a6:	f3 1f       	adc	r31, r19
 2a8:	40 81       	ld	r20, Z
 2aa:	2f 5f       	subi	r18, 0xFF	; 255
 2ac:	3f 4f       	sbci	r19, 0xFF	; 255
 2ae:	2f 77       	andi	r18, 0x7F	; 127
 2b0:	30 78       	andi	r19, 0x80	; 128
 2b2:	33 23       	and	r19, r19
 2b4:	34 f4       	brge	.+12     	; 0x2c2 <buffer_read+0x32>
 2b6:	21 50       	subi	r18, 0x01	; 1
 2b8:	31 09       	sbc	r19, r1
 2ba:	20 68       	ori	r18, 0x80	; 128
 2bc:	3f 6f       	ori	r19, 0xFF	; 255
 2be:	2f 5f       	subi	r18, 0xFF	; 255
 2c0:	3f 4f       	sbci	r19, 0xFF	; 255
 2c2:	fc 01       	movw	r30, r24
 2c4:	ef 57       	subi	r30, 0x7F	; 127
 2c6:	ff 4f       	sbci	r31, 0xFF	; 255
 2c8:	20 83       	st	Z, r18
 2ca:	dc 01       	movw	r26, r24
 2cc:	ae 57       	subi	r26, 0x7E	; 126
 2ce:	bf 4f       	sbci	r27, 0xFF	; 255
 2d0:	31 97       	sbiw	r30, 0x01	; 1
 2d2:	81 e0       	ldi	r24, 0x01	; 1
 2d4:	90 81       	ld	r25, Z
 2d6:	92 13       	cpse	r25, r18
 2d8:	80 e0       	ldi	r24, 0x00	; 0
 2da:	8c 93       	st	X, r24
 2dc:	84 2f       	mov	r24, r20
 2de:	08 95       	ret
 2e0:	80 e0       	ldi	r24, 0x00	; 0
 2e2:	08 95       	ret

000002e4 <buffer_empty>:
 2e4:	8e 57       	subi	r24, 0x7E	; 126
 2e6:	9f 4f       	sbci	r25, 0xFF	; 255
 2e8:	fc 01       	movw	r30, r24
 2ea:	80 81       	ld	r24, Z
 2ec:	08 95       	ret

000002ee <__vector_20>:

volatile struct ringbuffer tx_buffer = {{0}, 0, 0, true};
volatile struct ringbuffer rx_buffer = {{0}, 0, 0, true};

//AVR UART Interrupt (Receive and Transmit)
ISR(LIN_TC_vect) {
 2ee:	1f 92       	push	r1
 2f0:	0f 92       	push	r0
 2f2:	0f b6       	in	r0, 0x3f	; 63
 2f4:	0f 92       	push	r0
 2f6:	11 24       	eor	r1, r1
 2f8:	2f 93       	push	r18
 2fa:	3f 93       	push	r19
 2fc:	4f 93       	push	r20
 2fe:	5f 93       	push	r21
 300:	6f 93       	push	r22
 302:	7f 93       	push	r23
 304:	8f 93       	push	r24
 306:	9f 93       	push	r25
 308:	af 93       	push	r26
 30a:	bf 93       	push	r27
 30c:	ef 93       	push	r30
 30e:	ff 93       	push	r31
	
	// A byte has been received by the UART
	if(LINSIR & (1 << LRXOK)) {
 310:	80 91 c9 00 	lds	r24, 0x00C9	; 0x8000c9 <__TEXT_REGION_LENGTH__+0x7e00c9>
 314:	80 ff       	sbrs	r24, 0
 316:	0a c0       	rjmp	.+20     	; 0x32c <__vector_20+0x3e>
		//clear LRXOK
		LINSIR &= ~(1 << LRXOK);
 318:	e9 ec       	ldi	r30, 0xC9	; 201
 31a:	f0 e0       	ldi	r31, 0x00	; 0
 31c:	80 81       	ld	r24, Z
 31e:	8e 7f       	andi	r24, 0xFE	; 254
 320:	80 83       	st	Z, r24
		
		//write buffer
		uint8_t recv = LINDAT;
 322:	60 91 d2 00 	lds	r22, 0x00D2	; 0x8000d2 <__TEXT_REGION_LENGTH__+0x7e00d2>
		buffer_write(&rx_buffer, recv);	
 326:	86 e0       	ldi	r24, 0x06	; 6
 328:	91 e0       	ldi	r25, 0x01	; 1
 32a:	7f df       	rcall	.-258    	; 0x22a <buffer_write>
	}
	
	// A byte was successfully transmitted by the UART
	if(LINSIR & (1 << LTXOK)) {
 32c:	80 91 c9 00 	lds	r24, 0x00C9	; 0x8000c9 <__TEXT_REGION_LENGTH__+0x7e00c9>
 330:	81 ff       	sbrs	r24, 1
 332:	14 c0       	rjmp	.+40     	; 0x35c <__vector_20+0x6e>
		//clear LTXOK
		LINSIR &= ~(1 << LTXOK);
 334:	e9 ec       	ldi	r30, 0xC9	; 201
 336:	f0 e0       	ldi	r31, 0x00	; 0
 338:	80 81       	ld	r24, Z
 33a:	8d 7f       	andi	r24, 0xFD	; 253
 33c:	80 83       	st	Z, r24
		uint8_t data = buffer_read(&tx_buffer); 
 33e:	89 e8       	ldi	r24, 0x89	; 137
 340:	91 e0       	ldi	r25, 0x01	; 1
 342:	a6 df       	rcall	.-180    	; 0x290 <buffer_read>
		LINDAT = data;
 344:	80 93 d2 00 	sts	0x00D2, r24	; 0x8000d2 <__TEXT_REGION_LENGTH__+0x7e00d2>
		
		if(buffer_empty(&tx_buffer)) {
 348:	89 e8       	ldi	r24, 0x89	; 137
 34a:	91 e0       	ldi	r25, 0x01	; 1
 34c:	cb df       	rcall	.-106    	; 0x2e4 <buffer_empty>
 34e:	88 23       	and	r24, r24
			LINENIR  &= ~(1 << LENTXOK);
 350:	29 f0       	breq	.+10     	; 0x35c <__vector_20+0x6e>
 352:	ea ec       	ldi	r30, 0xCA	; 202
 354:	f0 e0       	ldi	r31, 0x00	; 0
 356:	80 81       	ld	r24, Z
 358:	8d 7f       	andi	r24, 0xFD	; 253
		}
	}
}
 35a:	80 83       	st	Z, r24
 35c:	ff 91       	pop	r31
 35e:	ef 91       	pop	r30
 360:	bf 91       	pop	r27
 362:	af 91       	pop	r26
 364:	9f 91       	pop	r25
 366:	8f 91       	pop	r24
 368:	7f 91       	pop	r23
 36a:	6f 91       	pop	r22
 36c:	5f 91       	pop	r21
 36e:	4f 91       	pop	r20
 370:	3f 91       	pop	r19
 372:	2f 91       	pop	r18
 374:	0f 90       	pop	r0
 376:	0f be       	out	0x3f, r0	; 63
 378:	0f 90       	pop	r0
 37a:	1f 90       	pop	r1
 37c:	18 95       	reti

0000037e <uart_init>:


void uart_init(uint16_t baud){
 37e:	cf 93       	push	r28
 380:	df 93       	push	r29
	//Reset LIN/UART hardware
	LINCR = (1 << LSWRES);
 382:	c8 ec       	ldi	r28, 0xC8	; 200
 384:	d0 e0       	ldi	r29, 0x00	; 0
 386:	20 e8       	ldi	r18, 0x80	; 128
 388:	28 83       	st	Y, r18
	
	//Calculate, and set UART baud rate
	LINBRRH = (((F_CPU / baud) / 16) - 1) >> 8;
 38a:	9c 01       	movw	r18, r24
 38c:	40 e0       	ldi	r20, 0x00	; 0
 38e:	50 e0       	ldi	r21, 0x00	; 0
 390:	60 e4       	ldi	r22, 0x40	; 64
 392:	72 e4       	ldi	r23, 0x42	; 66
 394:	8f e0       	ldi	r24, 0x0F	; 15
 396:	90 e0       	ldi	r25, 0x00	; 0
 398:	40 d0       	rcall	.+128    	; 0x41a <__divmodsi4>
 39a:	da 01       	movw	r26, r20
 39c:	c9 01       	movw	r24, r18
 39e:	01 97       	sbiw	r24, 0x01	; 1
 3a0:	a1 09       	sbc	r26, r1
 3a2:	b1 09       	sbc	r27, r1
 3a4:	89 2f       	mov	r24, r25
 3a6:	9a 2f       	mov	r25, r26
 3a8:	ab 2f       	mov	r26, r27
 3aa:	bb 27       	eor	r27, r27
 3ac:	a7 fd       	sbrc	r26, 7
 3ae:	ba 95       	dec	r27
 3b0:	80 93 ce 00 	sts	0x00CE, r24	; 0x8000ce <__TEXT_REGION_LENGTH__+0x7e00ce>
	LINBRRL = (((F_CPU / baud) / 16) - 1);
 3b4:	21 50       	subi	r18, 0x01	; 1
 3b6:	20 93 cd 00 	sts	0x00CD, r18	; 0x8000cd <__TEXT_REGION_LENGTH__+0x7e00cd>
	
	//Bit sampling rate/re-sync
	LINBTR = (1 << LDISR) | (16 << LBT0);
 3ba:	80 e9       	ldi	r24, 0x90	; 144
 3bc:	80 93 cc 00 	sts	0x00CC, r24	; 0x8000cc <__TEXT_REGION_LENGTH__+0x7e00cc>

	//RX interrupt
	LINENIR = (1 << LENRXOK);
 3c0:	81 e0       	ldi	r24, 0x01	; 1
 3c2:	80 93 ca 00 	sts	0x00CA, r24	; 0x8000ca <__TEXT_REGION_LENGTH__+0x7e00ca>

	//Enable UART RX & TX
	LINCR = (1 << LENA) | (1 << LCMD2) | (1 << LCMD1) | (1 << LCMD0);
 3c6:	8f e0       	ldi	r24, 0x0F	; 15
 3c8:	88 83       	st	Y, r24

	sei();
 3ca:	78 94       	sei
}
 3cc:	df 91       	pop	r29
 3ce:	cf 91       	pop	r28
 3d0:	08 95       	ret

000003d2 <uart_putc>:
			
int uart_putc(char data, FILE* file) {
 3d2:	cf 93       	push	r28
 3d4:	c8 2f       	mov	r28, r24
	cli();
 3d6:	f8 94       	cli
	//the the buffer was empty, enable tx interrupt
	if(!(LINENIR & (1 << LENTXOK))) {
 3d8:	80 91 ca 00 	lds	r24, 0x00CA	; 0x8000ca <__TEXT_REGION_LENGTH__+0x7e00ca>
 3dc:	81 fd       	sbrc	r24, 1
 3de:	08 c0       	rjmp	.+16     	; 0x3f0 <uart_putc+0x1e>
		LINENIR |= (1 << LENTXOK);
 3e0:	ea ec       	ldi	r30, 0xCA	; 202
 3e2:	f0 e0       	ldi	r31, 0x00	; 0
 3e4:	80 81       	ld	r24, Z
 3e6:	82 60       	ori	r24, 0x02	; 2
 3e8:	80 83       	st	Z, r24
		LINDAT = data;
 3ea:	c0 93 d2 00 	sts	0x00D2, r28	; 0x8000d2 <__TEXT_REGION_LENGTH__+0x7e00d2>
 3ee:	04 c0       	rjmp	.+8      	; 0x3f8 <uart_putc+0x26>
	}
	else {
		//add data to buffer
		buffer_write(&tx_buffer, data);
 3f0:	6c 2f       	mov	r22, r28
 3f2:	89 e8       	ldi	r24, 0x89	; 137
 3f4:	91 e0       	ldi	r25, 0x01	; 1
 3f6:	19 df       	rcall	.-462    	; 0x22a <buffer_write>
	}
	sei();
 3f8:	78 94       	sei
	return data;
}
 3fa:	8c 2f       	mov	r24, r28
 3fc:	cc 0f       	add	r28, r28
 3fe:	99 0b       	sbc	r25, r25
 400:	cf 91       	pop	r28
 402:	08 95       	ret

00000404 <uart_getc>:

uint8_t uart_getc(FILE* file) {
	cli();
 404:	f8 94       	cli
	
	int data_read = buffer_read(&rx_buffer);
 406:	86 e0       	ldi	r24, 0x06	; 6
 408:	91 e0       	ldi	r25, 0x01	; 1
 40a:	42 df       	rcall	.-380    	; 0x290 <buffer_read>
 40c:	90 e0       	ldi	r25, 0x00	; 0
	if(data_read == '\r') data_read = '\n';
 40e:	8d 30       	cpi	r24, 0x0D	; 13
 410:	91 05       	cpc	r25, r1
 412:	11 f4       	brne	.+4      	; 0x418 <uart_getc+0x14>
 414:	8a e0       	ldi	r24, 0x0A	; 10
 416:	90 e0       	ldi	r25, 0x00	; 0
	
	return data_read;
	sei();
 418:	08 95       	ret

0000041a <__divmodsi4>:
 41a:	05 2e       	mov	r0, r21
 41c:	97 fb       	bst	r25, 7
 41e:	16 f4       	brtc	.+4      	; 0x424 <__divmodsi4+0xa>
 420:	00 94       	com	r0
 422:	0f d0       	rcall	.+30     	; 0x442 <__negsi2>
 424:	57 fd       	sbrc	r21, 7
 426:	05 d0       	rcall	.+10     	; 0x432 <__divmodsi4_neg2>
 428:	14 d0       	rcall	.+40     	; 0x452 <__udivmodsi4>
 42a:	07 fc       	sbrc	r0, 7
 42c:	02 d0       	rcall	.+4      	; 0x432 <__divmodsi4_neg2>
 42e:	46 f4       	brtc	.+16     	; 0x440 <__divmodsi4_exit>
 430:	08 c0       	rjmp	.+16     	; 0x442 <__negsi2>

00000432 <__divmodsi4_neg2>:
 432:	50 95       	com	r21
 434:	40 95       	com	r20
 436:	30 95       	com	r19
 438:	21 95       	neg	r18
 43a:	3f 4f       	sbci	r19, 0xFF	; 255
 43c:	4f 4f       	sbci	r20, 0xFF	; 255
 43e:	5f 4f       	sbci	r21, 0xFF	; 255

00000440 <__divmodsi4_exit>:
 440:	08 95       	ret

00000442 <__negsi2>:
 442:	90 95       	com	r25
 444:	80 95       	com	r24
 446:	70 95       	com	r23
 448:	61 95       	neg	r22
 44a:	7f 4f       	sbci	r23, 0xFF	; 255
 44c:	8f 4f       	sbci	r24, 0xFF	; 255
 44e:	9f 4f       	sbci	r25, 0xFF	; 255
 450:	08 95       	ret

00000452 <__udivmodsi4>:
 452:	a1 e2       	ldi	r26, 0x21	; 33
 454:	1a 2e       	mov	r1, r26
 456:	aa 1b       	sub	r26, r26
 458:	bb 1b       	sub	r27, r27
 45a:	fd 01       	movw	r30, r26
 45c:	0d c0       	rjmp	.+26     	; 0x478 <__udivmodsi4_ep>

0000045e <__udivmodsi4_loop>:
 45e:	aa 1f       	adc	r26, r26
 460:	bb 1f       	adc	r27, r27
 462:	ee 1f       	adc	r30, r30
 464:	ff 1f       	adc	r31, r31
 466:	a2 17       	cp	r26, r18
 468:	b3 07       	cpc	r27, r19
 46a:	e4 07       	cpc	r30, r20
 46c:	f5 07       	cpc	r31, r21
 46e:	20 f0       	brcs	.+8      	; 0x478 <__udivmodsi4_ep>
 470:	a2 1b       	sub	r26, r18
 472:	b3 0b       	sbc	r27, r19
 474:	e4 0b       	sbc	r30, r20
 476:	f5 0b       	sbc	r31, r21

00000478 <__udivmodsi4_ep>:
 478:	66 1f       	adc	r22, r22
 47a:	77 1f       	adc	r23, r23
 47c:	88 1f       	adc	r24, r24
 47e:	99 1f       	adc	r25, r25
 480:	1a 94       	dec	r1
 482:	69 f7       	brne	.-38     	; 0x45e <__udivmodsi4_loop>
 484:	60 95       	com	r22
 486:	70 95       	com	r23
 488:	80 95       	com	r24
 48a:	90 95       	com	r25
 48c:	9b 01       	movw	r18, r22
 48e:	ac 01       	movw	r20, r24
 490:	bd 01       	movw	r22, r26
 492:	cf 01       	movw	r24, r30
 494:	08 95       	ret

00000496 <fdevopen>:
 496:	0f 93       	push	r16
 498:	1f 93       	push	r17
 49a:	cf 93       	push	r28
 49c:	df 93       	push	r29
 49e:	00 97       	sbiw	r24, 0x00	; 0
 4a0:	31 f4       	brne	.+12     	; 0x4ae <fdevopen+0x18>
 4a2:	61 15       	cp	r22, r1
 4a4:	71 05       	cpc	r23, r1
 4a6:	19 f4       	brne	.+6      	; 0x4ae <fdevopen+0x18>
 4a8:	80 e0       	ldi	r24, 0x00	; 0
 4aa:	90 e0       	ldi	r25, 0x00	; 0
 4ac:	39 c0       	rjmp	.+114    	; 0x520 <__stack+0x21>
 4ae:	8b 01       	movw	r16, r22
 4b0:	ec 01       	movw	r28, r24
 4b2:	6e e0       	ldi	r22, 0x0E	; 14
 4b4:	70 e0       	ldi	r23, 0x00	; 0
 4b6:	81 e0       	ldi	r24, 0x01	; 1
 4b8:	90 e0       	ldi	r25, 0x00	; 0
 4ba:	90 d0       	rcall	.+288    	; 0x5dc <calloc>
 4bc:	fc 01       	movw	r30, r24
 4be:	89 2b       	or	r24, r25
 4c0:	99 f3       	breq	.-26     	; 0x4a8 <fdevopen+0x12>
 4c2:	80 e8       	ldi	r24, 0x80	; 128
 4c4:	83 83       	std	Z+3, r24	; 0x03
 4c6:	01 15       	cp	r16, r1
 4c8:	11 05       	cpc	r17, r1
 4ca:	71 f0       	breq	.+28     	; 0x4e8 <fdevopen+0x52>
 4cc:	13 87       	std	Z+11, r17	; 0x0b
 4ce:	02 87       	std	Z+10, r16	; 0x0a
 4d0:	81 e8       	ldi	r24, 0x81	; 129
 4d2:	83 83       	std	Z+3, r24	; 0x03
 4d4:	80 91 50 02 	lds	r24, 0x0250	; 0x800250 <__iob>
 4d8:	90 91 51 02 	lds	r25, 0x0251	; 0x800251 <__iob+0x1>
 4dc:	89 2b       	or	r24, r25
 4de:	21 f4       	brne	.+8      	; 0x4e8 <fdevopen+0x52>
 4e0:	f0 93 51 02 	sts	0x0251, r31	; 0x800251 <__iob+0x1>
 4e4:	e0 93 50 02 	sts	0x0250, r30	; 0x800250 <__iob>
 4e8:	20 97       	sbiw	r28, 0x00	; 0
 4ea:	c9 f0       	breq	.+50     	; 0x51e <__stack+0x1f>
 4ec:	d1 87       	std	Z+9, r29	; 0x09
 4ee:	c0 87       	std	Z+8, r28	; 0x08
 4f0:	83 81       	ldd	r24, Z+3	; 0x03
 4f2:	82 60       	ori	r24, 0x02	; 2
 4f4:	83 83       	std	Z+3, r24	; 0x03
 4f6:	80 91 52 02 	lds	r24, 0x0252	; 0x800252 <__iob+0x2>
 4fa:	90 91 53 02 	lds	r25, 0x0253	; 0x800253 <__iob+0x3>
 4fe:	89 2b       	or	r24, r25
 500:	71 f4       	brne	.+28     	; 0x51e <__stack+0x1f>
 502:	f0 93 53 02 	sts	0x0253, r31	; 0x800253 <__iob+0x3>
 506:	e0 93 52 02 	sts	0x0252, r30	; 0x800252 <__iob+0x2>
 50a:	80 91 54 02 	lds	r24, 0x0254	; 0x800254 <__iob+0x4>
 50e:	90 91 55 02 	lds	r25, 0x0255	; 0x800255 <__iob+0x5>
 512:	89 2b       	or	r24, r25
 514:	21 f4       	brne	.+8      	; 0x51e <__stack+0x1f>
 516:	f0 93 55 02 	sts	0x0255, r31	; 0x800255 <__iob+0x5>
 51a:	e0 93 54 02 	sts	0x0254, r30	; 0x800254 <__iob+0x4>
 51e:	cf 01       	movw	r24, r30
 520:	df 91       	pop	r29
 522:	cf 91       	pop	r28
 524:	1f 91       	pop	r17
 526:	0f 91       	pop	r16
 528:	08 95       	ret

0000052a <gets>:
 52a:	0f 93       	push	r16
 52c:	1f 93       	push	r17
 52e:	cf 93       	push	r28
 530:	df 93       	push	r29
 532:	e0 91 50 02 	lds	r30, 0x0250	; 0x800250 <__iob>
 536:	f0 91 51 02 	lds	r31, 0x0251	; 0x800251 <__iob+0x1>
 53a:	23 81       	ldd	r18, Z+3	; 0x03
 53c:	20 fd       	sbrc	r18, 0
 53e:	03 c0       	rjmp	.+6      	; 0x546 <gets+0x1c>
 540:	80 e0       	ldi	r24, 0x00	; 0
 542:	90 e0       	ldi	r25, 0x00	; 0
 544:	16 c0       	rjmp	.+44     	; 0x572 <gets+0x48>
 546:	c9 2f       	mov	r28, r25
 548:	d8 2f       	mov	r29, r24
 54a:	08 2f       	mov	r16, r24
 54c:	19 2f       	mov	r17, r25
 54e:	80 91 50 02 	lds	r24, 0x0250	; 0x800250 <__iob>
 552:	90 91 51 02 	lds	r25, 0x0251	; 0x800251 <__iob+0x1>
 556:	84 d1       	rcall	.+776    	; 0x860 <fgetc>
 558:	8f 3f       	cpi	r24, 0xFF	; 255
 55a:	2f ef       	ldi	r18, 0xFF	; 255
 55c:	92 07       	cpc	r25, r18
 55e:	81 f3       	breq	.-32     	; 0x540 <gets+0x16>
 560:	f8 01       	movw	r30, r16
 562:	81 93       	st	Z+, r24
 564:	8f 01       	movw	r16, r30
 566:	0a 97       	sbiw	r24, 0x0a	; 10
 568:	91 f7       	brne	.-28     	; 0x54e <gets+0x24>
 56a:	31 97       	sbiw	r30, 0x01	; 1
 56c:	10 82       	st	Z, r1
 56e:	8d 2f       	mov	r24, r29
 570:	9c 2f       	mov	r25, r28
 572:	df 91       	pop	r29
 574:	cf 91       	pop	r28
 576:	1f 91       	pop	r17
 578:	0f 91       	pop	r16
 57a:	08 95       	ret

0000057c <puts>:
 57c:	0f 93       	push	r16
 57e:	1f 93       	push	r17
 580:	cf 93       	push	r28
 582:	df 93       	push	r29
 584:	e0 91 52 02 	lds	r30, 0x0252	; 0x800252 <__iob+0x2>
 588:	f0 91 53 02 	lds	r31, 0x0253	; 0x800253 <__iob+0x3>
 58c:	23 81       	ldd	r18, Z+3	; 0x03
 58e:	21 ff       	sbrs	r18, 1
 590:	1b c0       	rjmp	.+54     	; 0x5c8 <puts+0x4c>
 592:	8c 01       	movw	r16, r24
 594:	d0 e0       	ldi	r29, 0x00	; 0
 596:	c0 e0       	ldi	r28, 0x00	; 0
 598:	f8 01       	movw	r30, r16
 59a:	81 91       	ld	r24, Z+
 59c:	8f 01       	movw	r16, r30
 59e:	60 91 52 02 	lds	r22, 0x0252	; 0x800252 <__iob+0x2>
 5a2:	70 91 53 02 	lds	r23, 0x0253	; 0x800253 <__iob+0x3>
 5a6:	db 01       	movw	r26, r22
 5a8:	18 96       	adiw	r26, 0x08	; 8
 5aa:	ed 91       	ld	r30, X+
 5ac:	fc 91       	ld	r31, X
 5ae:	19 97       	sbiw	r26, 0x09	; 9
 5b0:	88 23       	and	r24, r24
 5b2:	31 f0       	breq	.+12     	; 0x5c0 <puts+0x44>
 5b4:	09 95       	icall
 5b6:	89 2b       	or	r24, r25
 5b8:	79 f3       	breq	.-34     	; 0x598 <puts+0x1c>
 5ba:	df ef       	ldi	r29, 0xFF	; 255
 5bc:	cf ef       	ldi	r28, 0xFF	; 255
 5be:	ec cf       	rjmp	.-40     	; 0x598 <puts+0x1c>
 5c0:	8a e0       	ldi	r24, 0x0A	; 10
 5c2:	09 95       	icall
 5c4:	89 2b       	or	r24, r25
 5c6:	19 f0       	breq	.+6      	; 0x5ce <puts+0x52>
 5c8:	8f ef       	ldi	r24, 0xFF	; 255
 5ca:	9f ef       	ldi	r25, 0xFF	; 255
 5cc:	02 c0       	rjmp	.+4      	; 0x5d2 <puts+0x56>
 5ce:	8d 2f       	mov	r24, r29
 5d0:	9c 2f       	mov	r25, r28
 5d2:	df 91       	pop	r29
 5d4:	cf 91       	pop	r28
 5d6:	1f 91       	pop	r17
 5d8:	0f 91       	pop	r16
 5da:	08 95       	ret

000005dc <calloc>:
 5dc:	0f 93       	push	r16
 5de:	1f 93       	push	r17
 5e0:	cf 93       	push	r28
 5e2:	df 93       	push	r29
 5e4:	86 9f       	mul	r24, r22
 5e6:	80 01       	movw	r16, r0
 5e8:	87 9f       	mul	r24, r23
 5ea:	10 0d       	add	r17, r0
 5ec:	96 9f       	mul	r25, r22
 5ee:	10 0d       	add	r17, r0
 5f0:	11 24       	eor	r1, r1
 5f2:	c8 01       	movw	r24, r16
 5f4:	0d d0       	rcall	.+26     	; 0x610 <malloc>
 5f6:	ec 01       	movw	r28, r24
 5f8:	00 97       	sbiw	r24, 0x00	; 0
 5fa:	21 f0       	breq	.+8      	; 0x604 <calloc+0x28>
 5fc:	a8 01       	movw	r20, r16
 5fe:	60 e0       	ldi	r22, 0x00	; 0
 600:	70 e0       	ldi	r23, 0x00	; 0
 602:	27 d1       	rcall	.+590    	; 0x852 <memset>
 604:	ce 01       	movw	r24, r28
 606:	df 91       	pop	r29
 608:	cf 91       	pop	r28
 60a:	1f 91       	pop	r17
 60c:	0f 91       	pop	r16
 60e:	08 95       	ret

00000610 <malloc>:
 610:	0f 93       	push	r16
 612:	1f 93       	push	r17
 614:	cf 93       	push	r28
 616:	df 93       	push	r29
 618:	82 30       	cpi	r24, 0x02	; 2
 61a:	91 05       	cpc	r25, r1
 61c:	10 f4       	brcc	.+4      	; 0x622 <malloc+0x12>
 61e:	82 e0       	ldi	r24, 0x02	; 2
 620:	90 e0       	ldi	r25, 0x00	; 0
 622:	e0 91 58 02 	lds	r30, 0x0258	; 0x800258 <__flp>
 626:	f0 91 59 02 	lds	r31, 0x0259	; 0x800259 <__flp+0x1>
 62a:	20 e0       	ldi	r18, 0x00	; 0
 62c:	30 e0       	ldi	r19, 0x00	; 0
 62e:	a0 e0       	ldi	r26, 0x00	; 0
 630:	b0 e0       	ldi	r27, 0x00	; 0
 632:	30 97       	sbiw	r30, 0x00	; 0
 634:	19 f1       	breq	.+70     	; 0x67c <malloc+0x6c>
 636:	40 81       	ld	r20, Z
 638:	51 81       	ldd	r21, Z+1	; 0x01
 63a:	02 81       	ldd	r16, Z+2	; 0x02
 63c:	13 81       	ldd	r17, Z+3	; 0x03
 63e:	48 17       	cp	r20, r24
 640:	59 07       	cpc	r21, r25
 642:	c8 f0       	brcs	.+50     	; 0x676 <malloc+0x66>
 644:	84 17       	cp	r24, r20
 646:	95 07       	cpc	r25, r21
 648:	69 f4       	brne	.+26     	; 0x664 <malloc+0x54>
 64a:	10 97       	sbiw	r26, 0x00	; 0
 64c:	31 f0       	breq	.+12     	; 0x65a <malloc+0x4a>
 64e:	12 96       	adiw	r26, 0x02	; 2
 650:	0c 93       	st	X, r16
 652:	12 97       	sbiw	r26, 0x02	; 2
 654:	13 96       	adiw	r26, 0x03	; 3
 656:	1c 93       	st	X, r17
 658:	27 c0       	rjmp	.+78     	; 0x6a8 <malloc+0x98>
 65a:	00 93 58 02 	sts	0x0258, r16	; 0x800258 <__flp>
 65e:	10 93 59 02 	sts	0x0259, r17	; 0x800259 <__flp+0x1>
 662:	22 c0       	rjmp	.+68     	; 0x6a8 <malloc+0x98>
 664:	21 15       	cp	r18, r1
 666:	31 05       	cpc	r19, r1
 668:	19 f0       	breq	.+6      	; 0x670 <malloc+0x60>
 66a:	42 17       	cp	r20, r18
 66c:	53 07       	cpc	r21, r19
 66e:	18 f4       	brcc	.+6      	; 0x676 <malloc+0x66>
 670:	9a 01       	movw	r18, r20
 672:	bd 01       	movw	r22, r26
 674:	ef 01       	movw	r28, r30
 676:	df 01       	movw	r26, r30
 678:	f8 01       	movw	r30, r16
 67a:	db cf       	rjmp	.-74     	; 0x632 <malloc+0x22>
 67c:	21 15       	cp	r18, r1
 67e:	31 05       	cpc	r19, r1
 680:	f9 f0       	breq	.+62     	; 0x6c0 <malloc+0xb0>
 682:	28 1b       	sub	r18, r24
 684:	39 0b       	sbc	r19, r25
 686:	24 30       	cpi	r18, 0x04	; 4
 688:	31 05       	cpc	r19, r1
 68a:	80 f4       	brcc	.+32     	; 0x6ac <malloc+0x9c>
 68c:	8a 81       	ldd	r24, Y+2	; 0x02
 68e:	9b 81       	ldd	r25, Y+3	; 0x03
 690:	61 15       	cp	r22, r1
 692:	71 05       	cpc	r23, r1
 694:	21 f0       	breq	.+8      	; 0x69e <malloc+0x8e>
 696:	fb 01       	movw	r30, r22
 698:	93 83       	std	Z+3, r25	; 0x03
 69a:	82 83       	std	Z+2, r24	; 0x02
 69c:	04 c0       	rjmp	.+8      	; 0x6a6 <malloc+0x96>
 69e:	90 93 59 02 	sts	0x0259, r25	; 0x800259 <__flp+0x1>
 6a2:	80 93 58 02 	sts	0x0258, r24	; 0x800258 <__flp>
 6a6:	fe 01       	movw	r30, r28
 6a8:	32 96       	adiw	r30, 0x02	; 2
 6aa:	44 c0       	rjmp	.+136    	; 0x734 <malloc+0x124>
 6ac:	fe 01       	movw	r30, r28
 6ae:	e2 0f       	add	r30, r18
 6b0:	f3 1f       	adc	r31, r19
 6b2:	81 93       	st	Z+, r24
 6b4:	91 93       	st	Z+, r25
 6b6:	22 50       	subi	r18, 0x02	; 2
 6b8:	31 09       	sbc	r19, r1
 6ba:	39 83       	std	Y+1, r19	; 0x01
 6bc:	28 83       	st	Y, r18
 6be:	3a c0       	rjmp	.+116    	; 0x734 <malloc+0x124>
 6c0:	20 91 56 02 	lds	r18, 0x0256	; 0x800256 <__brkval>
 6c4:	30 91 57 02 	lds	r19, 0x0257	; 0x800257 <__brkval+0x1>
 6c8:	23 2b       	or	r18, r19
 6ca:	41 f4       	brne	.+16     	; 0x6dc <malloc+0xcc>
 6cc:	20 91 02 01 	lds	r18, 0x0102	; 0x800102 <__malloc_heap_start>
 6d0:	30 91 03 01 	lds	r19, 0x0103	; 0x800103 <__malloc_heap_start+0x1>
 6d4:	30 93 57 02 	sts	0x0257, r19	; 0x800257 <__brkval+0x1>
 6d8:	20 93 56 02 	sts	0x0256, r18	; 0x800256 <__brkval>
 6dc:	20 91 00 01 	lds	r18, 0x0100	; 0x800100 <__data_start>
 6e0:	30 91 01 01 	lds	r19, 0x0101	; 0x800101 <__data_start+0x1>
 6e4:	21 15       	cp	r18, r1
 6e6:	31 05       	cpc	r19, r1
 6e8:	41 f4       	brne	.+16     	; 0x6fa <malloc+0xea>
 6ea:	2d b7       	in	r18, 0x3d	; 61
 6ec:	3e b7       	in	r19, 0x3e	; 62
 6ee:	40 91 04 01 	lds	r20, 0x0104	; 0x800104 <__malloc_margin>
 6f2:	50 91 05 01 	lds	r21, 0x0105	; 0x800105 <__malloc_margin+0x1>
 6f6:	24 1b       	sub	r18, r20
 6f8:	35 0b       	sbc	r19, r21
 6fa:	e0 91 56 02 	lds	r30, 0x0256	; 0x800256 <__brkval>
 6fe:	f0 91 57 02 	lds	r31, 0x0257	; 0x800257 <__brkval+0x1>
 702:	e2 17       	cp	r30, r18
 704:	f3 07       	cpc	r31, r19
 706:	a0 f4       	brcc	.+40     	; 0x730 <malloc+0x120>
 708:	2e 1b       	sub	r18, r30
 70a:	3f 0b       	sbc	r19, r31
 70c:	28 17       	cp	r18, r24
 70e:	39 07       	cpc	r19, r25
 710:	78 f0       	brcs	.+30     	; 0x730 <malloc+0x120>
 712:	ac 01       	movw	r20, r24
 714:	4e 5f       	subi	r20, 0xFE	; 254
 716:	5f 4f       	sbci	r21, 0xFF	; 255
 718:	24 17       	cp	r18, r20
 71a:	35 07       	cpc	r19, r21
 71c:	48 f0       	brcs	.+18     	; 0x730 <malloc+0x120>
 71e:	4e 0f       	add	r20, r30
 720:	5f 1f       	adc	r21, r31
 722:	50 93 57 02 	sts	0x0257, r21	; 0x800257 <__brkval+0x1>
 726:	40 93 56 02 	sts	0x0256, r20	; 0x800256 <__brkval>
 72a:	81 93       	st	Z+, r24
 72c:	91 93       	st	Z+, r25
 72e:	02 c0       	rjmp	.+4      	; 0x734 <malloc+0x124>
 730:	e0 e0       	ldi	r30, 0x00	; 0
 732:	f0 e0       	ldi	r31, 0x00	; 0
 734:	cf 01       	movw	r24, r30
 736:	df 91       	pop	r29
 738:	cf 91       	pop	r28
 73a:	1f 91       	pop	r17
 73c:	0f 91       	pop	r16
 73e:	08 95       	ret

00000740 <free>:
 740:	cf 93       	push	r28
 742:	df 93       	push	r29
 744:	00 97       	sbiw	r24, 0x00	; 0
 746:	09 f4       	brne	.+2      	; 0x74a <free+0xa>
 748:	81 c0       	rjmp	.+258    	; 0x84c <free+0x10c>
 74a:	fc 01       	movw	r30, r24
 74c:	32 97       	sbiw	r30, 0x02	; 2
 74e:	13 82       	std	Z+3, r1	; 0x03
 750:	12 82       	std	Z+2, r1	; 0x02
 752:	a0 91 58 02 	lds	r26, 0x0258	; 0x800258 <__flp>
 756:	b0 91 59 02 	lds	r27, 0x0259	; 0x800259 <__flp+0x1>
 75a:	10 97       	sbiw	r26, 0x00	; 0
 75c:	81 f4       	brne	.+32     	; 0x77e <free+0x3e>
 75e:	20 81       	ld	r18, Z
 760:	31 81       	ldd	r19, Z+1	; 0x01
 762:	82 0f       	add	r24, r18
 764:	93 1f       	adc	r25, r19
 766:	20 91 56 02 	lds	r18, 0x0256	; 0x800256 <__brkval>
 76a:	30 91 57 02 	lds	r19, 0x0257	; 0x800257 <__brkval+0x1>
 76e:	28 17       	cp	r18, r24
 770:	39 07       	cpc	r19, r25
 772:	51 f5       	brne	.+84     	; 0x7c8 <free+0x88>
 774:	f0 93 57 02 	sts	0x0257, r31	; 0x800257 <__brkval+0x1>
 778:	e0 93 56 02 	sts	0x0256, r30	; 0x800256 <__brkval>
 77c:	67 c0       	rjmp	.+206    	; 0x84c <free+0x10c>
 77e:	ed 01       	movw	r28, r26
 780:	20 e0       	ldi	r18, 0x00	; 0
 782:	30 e0       	ldi	r19, 0x00	; 0
 784:	ce 17       	cp	r28, r30
 786:	df 07       	cpc	r29, r31
 788:	40 f4       	brcc	.+16     	; 0x79a <free+0x5a>
 78a:	4a 81       	ldd	r20, Y+2	; 0x02
 78c:	5b 81       	ldd	r21, Y+3	; 0x03
 78e:	9e 01       	movw	r18, r28
 790:	41 15       	cp	r20, r1
 792:	51 05       	cpc	r21, r1
 794:	f1 f0       	breq	.+60     	; 0x7d2 <free+0x92>
 796:	ea 01       	movw	r28, r20
 798:	f5 cf       	rjmp	.-22     	; 0x784 <free+0x44>
 79a:	d3 83       	std	Z+3, r29	; 0x03
 79c:	c2 83       	std	Z+2, r28	; 0x02
 79e:	40 81       	ld	r20, Z
 7a0:	51 81       	ldd	r21, Z+1	; 0x01
 7a2:	84 0f       	add	r24, r20
 7a4:	95 1f       	adc	r25, r21
 7a6:	c8 17       	cp	r28, r24
 7a8:	d9 07       	cpc	r29, r25
 7aa:	59 f4       	brne	.+22     	; 0x7c2 <free+0x82>
 7ac:	88 81       	ld	r24, Y
 7ae:	99 81       	ldd	r25, Y+1	; 0x01
 7b0:	84 0f       	add	r24, r20
 7b2:	95 1f       	adc	r25, r21
 7b4:	02 96       	adiw	r24, 0x02	; 2
 7b6:	91 83       	std	Z+1, r25	; 0x01
 7b8:	80 83       	st	Z, r24
 7ba:	8a 81       	ldd	r24, Y+2	; 0x02
 7bc:	9b 81       	ldd	r25, Y+3	; 0x03
 7be:	93 83       	std	Z+3, r25	; 0x03
 7c0:	82 83       	std	Z+2, r24	; 0x02
 7c2:	21 15       	cp	r18, r1
 7c4:	31 05       	cpc	r19, r1
 7c6:	29 f4       	brne	.+10     	; 0x7d2 <free+0x92>
 7c8:	f0 93 59 02 	sts	0x0259, r31	; 0x800259 <__flp+0x1>
 7cc:	e0 93 58 02 	sts	0x0258, r30	; 0x800258 <__flp>
 7d0:	3d c0       	rjmp	.+122    	; 0x84c <free+0x10c>
 7d2:	e9 01       	movw	r28, r18
 7d4:	fb 83       	std	Y+3, r31	; 0x03
 7d6:	ea 83       	std	Y+2, r30	; 0x02
 7d8:	49 91       	ld	r20, Y+
 7da:	59 91       	ld	r21, Y+
 7dc:	c4 0f       	add	r28, r20
 7de:	d5 1f       	adc	r29, r21
 7e0:	ec 17       	cp	r30, r28
 7e2:	fd 07       	cpc	r31, r29
 7e4:	61 f4       	brne	.+24     	; 0x7fe <free+0xbe>
 7e6:	80 81       	ld	r24, Z
 7e8:	91 81       	ldd	r25, Z+1	; 0x01
 7ea:	84 0f       	add	r24, r20
 7ec:	95 1f       	adc	r25, r21
 7ee:	02 96       	adiw	r24, 0x02	; 2
 7f0:	e9 01       	movw	r28, r18
 7f2:	99 83       	std	Y+1, r25	; 0x01
 7f4:	88 83       	st	Y, r24
 7f6:	82 81       	ldd	r24, Z+2	; 0x02
 7f8:	93 81       	ldd	r25, Z+3	; 0x03
 7fa:	9b 83       	std	Y+3, r25	; 0x03
 7fc:	8a 83       	std	Y+2, r24	; 0x02
 7fe:	e0 e0       	ldi	r30, 0x00	; 0
 800:	f0 e0       	ldi	r31, 0x00	; 0
 802:	12 96       	adiw	r26, 0x02	; 2
 804:	8d 91       	ld	r24, X+
 806:	9c 91       	ld	r25, X
 808:	13 97       	sbiw	r26, 0x03	; 3
 80a:	00 97       	sbiw	r24, 0x00	; 0
 80c:	19 f0       	breq	.+6      	; 0x814 <free+0xd4>
 80e:	fd 01       	movw	r30, r26
 810:	dc 01       	movw	r26, r24
 812:	f7 cf       	rjmp	.-18     	; 0x802 <free+0xc2>
 814:	8d 91       	ld	r24, X+
 816:	9c 91       	ld	r25, X
 818:	11 97       	sbiw	r26, 0x01	; 1
 81a:	9d 01       	movw	r18, r26
 81c:	2e 5f       	subi	r18, 0xFE	; 254
 81e:	3f 4f       	sbci	r19, 0xFF	; 255
 820:	82 0f       	add	r24, r18
 822:	93 1f       	adc	r25, r19
 824:	20 91 56 02 	lds	r18, 0x0256	; 0x800256 <__brkval>
 828:	30 91 57 02 	lds	r19, 0x0257	; 0x800257 <__brkval+0x1>
 82c:	28 17       	cp	r18, r24
 82e:	39 07       	cpc	r19, r25
 830:	69 f4       	brne	.+26     	; 0x84c <free+0x10c>
 832:	30 97       	sbiw	r30, 0x00	; 0
 834:	29 f4       	brne	.+10     	; 0x840 <free+0x100>
 836:	10 92 59 02 	sts	0x0259, r1	; 0x800259 <__flp+0x1>
 83a:	10 92 58 02 	sts	0x0258, r1	; 0x800258 <__flp>
 83e:	02 c0       	rjmp	.+4      	; 0x844 <free+0x104>
 840:	13 82       	std	Z+3, r1	; 0x03
 842:	12 82       	std	Z+2, r1	; 0x02
 844:	b0 93 57 02 	sts	0x0257, r27	; 0x800257 <__brkval+0x1>
 848:	a0 93 56 02 	sts	0x0256, r26	; 0x800256 <__brkval>
 84c:	df 91       	pop	r29
 84e:	cf 91       	pop	r28
 850:	08 95       	ret

00000852 <memset>:
 852:	dc 01       	movw	r26, r24
 854:	01 c0       	rjmp	.+2      	; 0x858 <memset+0x6>
 856:	6d 93       	st	X+, r22
 858:	41 50       	subi	r20, 0x01	; 1
 85a:	50 40       	sbci	r21, 0x00	; 0
 85c:	e0 f7       	brcc	.-8      	; 0x856 <memset+0x4>
 85e:	08 95       	ret

00000860 <fgetc>:
 860:	cf 93       	push	r28
 862:	df 93       	push	r29
 864:	ec 01       	movw	r28, r24
 866:	2b 81       	ldd	r18, Y+3	; 0x03
 868:	20 ff       	sbrs	r18, 0
 86a:	33 c0       	rjmp	.+102    	; 0x8d2 <fgetc+0x72>
 86c:	26 ff       	sbrs	r18, 6
 86e:	0a c0       	rjmp	.+20     	; 0x884 <fgetc+0x24>
 870:	2f 7b       	andi	r18, 0xBF	; 191
 872:	2b 83       	std	Y+3, r18	; 0x03
 874:	8e 81       	ldd	r24, Y+6	; 0x06
 876:	9f 81       	ldd	r25, Y+7	; 0x07
 878:	01 96       	adiw	r24, 0x01	; 1
 87a:	9f 83       	std	Y+7, r25	; 0x07
 87c:	8e 83       	std	Y+6, r24	; 0x06
 87e:	8a 81       	ldd	r24, Y+2	; 0x02
 880:	90 e0       	ldi	r25, 0x00	; 0
 882:	29 c0       	rjmp	.+82     	; 0x8d6 <fgetc+0x76>
 884:	22 ff       	sbrs	r18, 2
 886:	0f c0       	rjmp	.+30     	; 0x8a6 <fgetc+0x46>
 888:	e8 81       	ld	r30, Y
 88a:	f9 81       	ldd	r31, Y+1	; 0x01
 88c:	80 81       	ld	r24, Z
 88e:	08 2e       	mov	r0, r24
 890:	00 0c       	add	r0, r0
 892:	99 0b       	sbc	r25, r25
 894:	00 97       	sbiw	r24, 0x00	; 0
 896:	19 f4       	brne	.+6      	; 0x89e <fgetc+0x3e>
 898:	20 62       	ori	r18, 0x20	; 32
 89a:	2b 83       	std	Y+3, r18	; 0x03
 89c:	1a c0       	rjmp	.+52     	; 0x8d2 <fgetc+0x72>
 89e:	31 96       	adiw	r30, 0x01	; 1
 8a0:	f9 83       	std	Y+1, r31	; 0x01
 8a2:	e8 83       	st	Y, r30
 8a4:	0e c0       	rjmp	.+28     	; 0x8c2 <fgetc+0x62>
 8a6:	ea 85       	ldd	r30, Y+10	; 0x0a
 8a8:	fb 85       	ldd	r31, Y+11	; 0x0b
 8aa:	09 95       	icall
 8ac:	97 ff       	sbrs	r25, 7
 8ae:	09 c0       	rjmp	.+18     	; 0x8c2 <fgetc+0x62>
 8b0:	2b 81       	ldd	r18, Y+3	; 0x03
 8b2:	01 96       	adiw	r24, 0x01	; 1
 8b4:	11 f0       	breq	.+4      	; 0x8ba <fgetc+0x5a>
 8b6:	80 e2       	ldi	r24, 0x20	; 32
 8b8:	01 c0       	rjmp	.+2      	; 0x8bc <fgetc+0x5c>
 8ba:	80 e1       	ldi	r24, 0x10	; 16
 8bc:	82 2b       	or	r24, r18
 8be:	8b 83       	std	Y+3, r24	; 0x03
 8c0:	08 c0       	rjmp	.+16     	; 0x8d2 <fgetc+0x72>
 8c2:	2e 81       	ldd	r18, Y+6	; 0x06
 8c4:	3f 81       	ldd	r19, Y+7	; 0x07
 8c6:	2f 5f       	subi	r18, 0xFF	; 255
 8c8:	3f 4f       	sbci	r19, 0xFF	; 255
 8ca:	3f 83       	std	Y+7, r19	; 0x07
 8cc:	2e 83       	std	Y+6, r18	; 0x06
 8ce:	99 27       	eor	r25, r25
 8d0:	02 c0       	rjmp	.+4      	; 0x8d6 <fgetc+0x76>
 8d2:	8f ef       	ldi	r24, 0xFF	; 255
 8d4:	9f ef       	ldi	r25, 0xFF	; 255
 8d6:	df 91       	pop	r29
 8d8:	cf 91       	pop	r28
 8da:	08 95       	ret

000008dc <_exit>:
 8dc:	f8 94       	cli

000008de <__stop_program>:
 8de:	ff cf       	rjmp	.-2      	; 0x8de <__stop_program>
